000003F7CA6C5339: [Code] in OldSpace
 - map: 0x036663f01019 <Map[88](CODE_TYPE)>
 - kind: BASELINE
 - instruction_stream: 0x7ff5bd643031 <InstructionStream BASELINE>
 - code_entry_point: 00007FF5BD643040
 - kind_specific_flags: 0
00007FF5BD643031: [InstructionStream]
 - map: 0x036663f00951 <Map(INSTRUCTION_STREAM_TYPE)>
 - code: 0x03f7ca6c5339 <Code BASELINE>kind = BASELINE
compiler = baseline
address = 000003F7CA6C5339

Instructions (size = 2536)
00007FF5BD643040     0  bba8000000           movl rbx,00000000000000A8
00007FF5BD643045     5  49bc898154256e030000 REX.W movq r12,0000036E25548189    ;; object: 0x036e25548189 <BytecodeArray[279]>
00007FF5BD64304F     f  e84053e37f           call 00007FF63D478394  (BaselineOutOfLinePrologue)    ;; near builtin entry
00007FF5BD643054    14  50                   push rax
00007FF5BD643055    15  41b802000000         movl r8,0000000000000002
00007FF5BD64305B    1b  50                   push rax
00007FF5BD64305C    1c  50                   push rax
00007FF5BD64305D    1d  50                   push rax
00007FF5BD64305E    1e  50                   push rax
00007FF5BD64305F    1f  50                   push rax
00007FF5BD643060    20  50                   push rax
00007FF5BD643061    21  50                   push rax
00007FF5BD643062    22  50                   push rax
00007FF5BD643063    23  41ffc8               decl r8
00007FF5BD643066    26  7ff3                 jg 00007FF5BD64305B  <+0x1b>
00007FF5BD643068    28  48b8818354256e030000 REX.W movq rax,0000036E25548381    ;; object: 0x036e25548381 <ScopeInfo FUNCTION_SCOPE>
00007FF5BD643072    32  bb02000000           movl rbx,0000000000000002
00007FF5BD643077    37  488b75f8             REX.W movq rsi,[rbp-0x8]
00007FF5BD64307B    3b  e85467f07f           call 00007FF63D5497D4  (FastNewFunctionContextFunction)    ;; near builtin entry
00007FF5BD643080    40  4c8b45f8             REX.W movq r8,[rbp-0x8]
00007FF5BD643084    44  488945f8             REX.W movq [rbp-0x8],rax
00007FF5BD643088    48  4c894588             REX.W movq [rbp-0x78],r8
00007FF5BD64308C    4c  498b8598010000       REX.W movq rax,[r13+0x198] (root (the_hole_value))
00007FF5BD643093    53  488bc8               REX.W movq rcx,rax
00007FF5BD643096    56  488b7df8             REX.W movq rdi,[rbp-0x8]
00007FF5BD64309A    5a  48894f1f             REX.W movq [rdi+0x1f],rcx
00007FF5BD64309E    5e  f6c101               testb rcx,0x1
00007FF5BD6430A1    61  0f8426000000         jz 00007FF5BD6430CD  <+0x8d>
00007FF5BD6430A7    67  4c8d471f             REX.W leaq r8,[rdi+0x1f]
00007FF5BD6430AB    6b  4881e10000fcff       REX.W andq rcx,0xfffffffffffc0000
00007FF5BD6430B2    72  f6410802             testb [rcx+0x8],0x2
00007FF5BD6430B6    76  7415                 jz 00007FF5BD6430CD  <+0x8d>
00007FF5BD6430B8    78  48c7c10000fcff       REX.W movq rcx,0xfffc0000
00007FF5BD6430BF    7f  4823cf               REX.W andq rcx,rdi
00007FF5BD6430C2    82  f6410804             testb [rcx+0x8],0x4
00007FF5BD6430C6    86  7405                 jz 00007FF5BD6430CD  <+0x8d>
00007FF5BD6430C8    88  e84798e27f           call 00007FF63D46C914  (RecordWriteIgnoreFP)    ;; near builtin entry
00007FF5BD6430CD    8d  498b8598010000       REX.W movq rax,[r13+0x198] (root (the_hole_value))
00007FF5BD6430D4    94  488bc8               REX.W movq rcx,rax
00007FF5BD6430D7    97  488b7df8             REX.W movq rdi,[rbp-0x8]
00007FF5BD6430DB    9b  48894f27             REX.W movq [rdi+0x27],rcx
00007FF5BD6430DF    9f  f6c101               testb rcx,0x1
00007FF5BD6430E2    a2  0f8426000000         jz 00007FF5BD64310E  <+0xce>
00007FF5BD6430E8    a8  4c8d4727             REX.W leaq r8,[rdi+0x27]
00007FF5BD6430EC    ac  4881e10000fcff       REX.W andq rcx,0xfffffffffffc0000
00007FF5BD6430F3    b3  f6410802             testb [rcx+0x8],0x2
00007FF5BD6430F7    b7  7415                 jz 00007FF5BD64310E  <+0xce>
00007FF5BD6430F9    b9  48c7c10000fcff       REX.W movq rcx,0xfffc0000
00007FF5BD643100    c0  4823cf               REX.W andq rcx,rdi
00007FF5BD643103    c3  f6410804             testb [rcx+0x8],0x4
00007FF5BD643107    c7  7405                 jz 00007FF5BD64310E  <+0xce>
00007FF5BD643109    c9  e80698e27f           call 00007FF63D46C914  (RecordWriteIgnoreFP)    ;; near builtin entry
00007FF5BD64310E    ce  488b4518             REX.W movq rax,[rbp+0x18]
00007FF5BD643112    d2  488bc8               REX.W movq rcx,rax
00007FF5BD643115    d5  488b7df8             REX.W movq rdi,[rbp-0x8]
00007FF5BD643119    d9  48894f1f             REX.W movq [rdi+0x1f],rcx
00007FF5BD64311D    dd  f6c101               testb rcx,0x1
00007FF5BD643120    e0  0f8426000000         jz 00007FF5BD64314C  <+0x10c>
00007FF5BD643126    e6  4c8d471f             REX.W leaq r8,[rdi+0x1f]
00007FF5BD64312A    ea  4881e10000fcff       REX.W andq rcx,0xfffffffffffc0000
00007FF5BD643131    f1  f6410802             testb [rcx+0x8],0x2
00007FF5BD643135    f5  7415                 jz 00007FF5BD64314C  <+0x10c>
00007FF5BD643137    f7  48c7c10000fcff       REX.W movq rcx,0xfffc0000
00007FF5BD64313E    fe  4823cf               REX.W andq rcx,rdi
00007FF5BD643141   101  f6410804             testb [rcx+0x8],0x4
00007FF5BD643145   105  7405                 jz 00007FF5BD64314C  <+0x10c>
00007FF5BD643147   107  e8c897e27f           call 00007FF63D46C914  (RecordWriteIgnoreFP)    ;; near builtin entry
00007FF5BD64314C   10c  488b4520             REX.W movq rax,[rbp+0x20]
00007FF5BD643150   110  488bc8               REX.W movq rcx,rax
00007FF5BD643153   113  488b7df8             REX.W movq rdi,[rbp-0x8]
00007FF5BD643157   117  48894f27             REX.W movq [rdi+0x27],rcx
00007FF5BD64315B   11b  f6c101               testb rcx,0x1
00007FF5BD64315E   11e  0f8426000000         jz 00007FF5BD64318A  <+0x14a>
00007FF5BD643164   124  4c8d4727             REX.W leaq r8,[rdi+0x27]
00007FF5BD643168   128  4881e10000fcff       REX.W andq rcx,0xfffffffffffc0000
00007FF5BD64316F   12f  f6410802             testb [rcx+0x8],0x2
00007FF5BD643173   133  7415                 jz 00007FF5BD64318A  <+0x14a>
00007FF5BD643175   135  48c7c10000fcff       REX.W movq rcx,0xfffc0000
00007FF5BD64317C   13c  4823cf               REX.W andq rcx,rdi
00007FF5BD64317F   13f  f6410804             testb [rcx+0x8],0x4
00007FF5BD643183   143  7405                 jz 00007FF5BD64318A  <+0x14a>
00007FF5BD643185   145  e88a97e27f           call 00007FF63D46C914  (RecordWriteIgnoreFP)    ;; near builtin entry
00007FF5BD64318A   14a  4c8b4528             REX.W movq r8,[rbp+0x28]
00007FF5BD64318E   14e  4c8945d0             REX.W movq [rbp-0x30],r8
00007FF5BD643192   152  488b4530             REX.W movq rax,[rbp+0x30]
00007FF5BD643196   156  493b8590010000       REX.W cmpq rax,[r13+0x190] (root (undefined_value))
00007FF5BD64319D   15d  7412                 jz 00007FF5BD6431B1  <+0x171>
00007FF5BD64319F   15f  4c8b45f0             REX.W movq r8,[rbp-0x10]
00007FF5BD6431A3   163  4d8b4027             REX.W movq r8,[r8+0x27]
00007FF5BD6431A7   167  4183400f03           addl [r8+0xf],0x3
00007FF5BD6431AC   16c  e919000000           jmp 00007FF5BD6431CA  <+0x18a>
00007FF5BD6431B1   171  498b85a8010000       REX.W movq rax,[r13+0x1a8] (root (true_value))
00007FF5BD6431B8   178  4c8b45f0             REX.W movq r8,[rbp-0x10]
00007FF5BD6431BC   17c  4d8b4027             REX.W movq r8,[r8+0x27]
00007FF5BD6431C0   180  4183400f02           addl [r8+0xf],0x2
00007FF5BD6431C5   185  e904000000           jmp 00007FF5BD6431CE  <+0x18e>
00007FF5BD6431CA   18a  488b4530             REX.W movq rax,[rbp+0x30]
00007FF5BD6431CE   18e  488945c8             REX.W movq [rbp-0x38],rax
00007FF5BD6431D2   192  488b75f8             REX.W movq rsi,[rbp-0x8]
00007FF5BD6431D6   196  49baf18354256e030000 REX.W movq r10,0000036E255483F1    ;; object: 0x036e255483f1 <ScopeInfo BLOCK_SCOPE>
00007FF5BD6431E0   1a0  4152                 push r10
00007FF5BD6431E2   1a2  b801000000           movl rax,0000000000000001
00007FF5BD6431E7   1a7  48bb20aaf63cf67f0000 REX.W movq rbx,00007FF63CF6AA20
00007FF5BD6431F1   1b1  e89e30ec7f           call 00007FF63D506294  (CEntry_Return1_ArgvOnStack_NoBuiltinExit)    ;; near builtin entry
00007FF5BD6431F6   1b6  4c8b45f8             REX.W movq r8,[rbp-0x8]
00007FF5BD6431FA   1ba  488945f8             REX.W movq [rbp-0x8],rax
00007FF5BD6431FE   1be  4c894580             REX.W movq [rbp-0x80],r8
00007FF5BD643202   1c2  498b8598010000       REX.W movq rax,[r13+0x198] (root (the_hole_value))
00007FF5BD643209   1c9  488bc8               REX.W movq rcx,rax
00007FF5BD64320C   1cc  488b7df8             REX.W movq rdi,[rbp-0x8]
00007FF5BD643210   1d0  48894f1f             REX.W movq [rdi+0x1f],rcx
00007FF5BD643214   1d4  f6c101               testb rcx,0x1
00007FF5BD643217   1d7  0f8426000000         jz 00007FF5BD643243  <+0x203>
00007FF5BD64321D   1dd  4c8d471f             REX.W leaq r8,[rdi+0x1f]
00007FF5BD643221   1e1  4881e10000fcff       REX.W andq rcx,0xfffffffffffc0000
00007FF5BD643228   1e8  f6410802             testb [rcx+0x8],0x2
00007FF5BD64322C   1ec  7415                 jz 00007FF5BD643243  <+0x203>
00007FF5BD64322E   1ee  48c7c10000fcff       REX.W movq rcx,0xfffc0000
00007FF5BD643235   1f5  4823cf               REX.W andq rcx,rdi
00007FF5BD643238   1f8  f6410804             testb [rcx+0x8],0x4
00007FF5BD64323C   1fc  7405                 jz 00007FF5BD643243  <+0x203>
00007FF5BD64323E   1fe  e8d196e27f           call 00007FF63D46C914  (RecordWriteIgnoreFP)    ;; near builtin entry
00007FF5BD643243   203  488b45d8             REX.W movq rax,[rbp-0x28]
00007FF5BD643247   207  33db                 xorl rbx,rbx
00007FF5BD643249   209  48b93922f06366030000 REX.W movq rcx,0000036663F02239    ;; object: 0x036663f02239 <ObjectBoilerplateDescription[1]>
00007FF5BD643253   213  48ba0000000019000000 REX.W movq rdx,0000001900000000
00007FF5BD64325D   21d  488b75f8             REX.W movq rsi,[rbp-0x8]
00007FF5BD643261   221  e82e6ef07f           call 00007FF63D54A094  (CreateShallowObjectLiteral)    ;; near builtin entry
00007FF5BD643266   226  488945a8             REX.W movq [rbp-0x58],rax
00007FF5BD64326A   22a  498b8590010000       REX.W movq rax,[r13+0x190] (root (undefined_value))
00007FF5BD643271   231  488bc8               REX.W movq rcx,rax
00007FF5BD643274   234  488b7df8             REX.W movq rdi,[rbp-0x8]
00007FF5BD643278   238  48894f1f             REX.W movq [rdi+0x1f],rcx
00007FF5BD64327C   23c  f6c101               testb rcx,0x1
00007FF5BD64327F   23f  0f8426000000         jz 00007FF5BD6432AB  <+0x26b>
00007FF5BD643285   245  4c8d471f             REX.W leaq r8,[rdi+0x1f]
00007FF5BD643289   249  4881e10000fcff       REX.W andq rcx,0xfffffffffffc0000
00007FF5BD643290   250  f6410802             testb [rcx+0x8],0x2
00007FF5BD643294   254  7415                 jz 00007FF5BD6432AB  <+0x26b>
00007FF5BD643296   256  48c7c10000fcff       REX.W movq rcx,0xfffc0000
00007FF5BD64329D   25d  4823cf               REX.W andq rcx,rdi
00007FF5BD6432A0   260  f6410804             testb [rcx+0x8],0x4
00007FF5BD6432A4   264  7405                 jz 00007FF5BD6432AB  <+0x26b>
00007FF5BD6432A6   266  e86996e27f           call 00007FF63D46C914  (RecordWriteIgnoreFP)    ;; near builtin entry
00007FF5BD6432AB   26b  33c0                 xorl rax,rax
00007FF5BD6432AD   26d  488945a0             REX.W movq [rbp-0x60],rax
00007FF5BD6432B1   271  488945c0             REX.W movq [rbp-0x40],rax
00007FF5BD6432B5   275  48b80000000001000000 REX.W movq rax,0000000100000000
00007FF5BD6432BF   27f  488945b8             REX.W movq [rbp-0x48],rax
00007FF5BD6432C3   283  4c8b45c0             REX.W movq r8,[rbp-0x40]
00007FF5BD6432C7   287  4c894598             REX.W movq [rbp-0x68],r8
00007FF5BD6432CB   28b  488b05e5ffffff       REX.W movq rax,[rip+0xffffffe5]
00007FF5BD6432D2   292  488b55b8             REX.W movq rdx,[rbp-0x48]
00007FF5BD6432D6   296  bb01000000           movl rbx,0000000000000001
00007FF5BD6432DB   29b  e8f4b7e97f           call 00007FF63D4DEAD4  (Equal_Baseline)    ;; near builtin entry
00007FF5BD6432E0   2a0  493b85b0010000       REX.W cmpq rax,[r13+0x1b0] (root (false_value))
00007FF5BD6432E7   2a7  7512                 jnz 00007FF5BD6432FB  <+0x2bb>
00007FF5BD6432E9   2a9  4c8b45f0             REX.W movq r8,[rbp-0x10]
00007FF5BD6432ED   2ad  4d8b4027             REX.W movq r8,[r8+0x27]
00007FF5BD6432F1   2b1  4183400f04           addl [r8+0xf],0x4
00007FF5BD6432F6   2b6  e918000000           jmp 00007FF5BD643313  <+0x2d3>
00007FF5BD6432FB   2bb  33c0                 xorl rax,rax
00007FF5BD6432FD   2bd  488945b8             REX.W movq [rbp-0x48],rax
00007FF5BD643301   2c1  4c8b45f0             REX.W movq r8,[rbp-0x10]
00007FF5BD643305   2c5  4d8b4027             REX.W movq r8,[r8+0x27]
00007FF5BD643309   2c9  4183400f05           addl [r8+0xf],0x5
00007FF5BD64330E   2ce  e912000000           jmp 00007FF5BD643325  <+0x2e5>
00007FF5BD643313   2d3  488b4598             REX.W movq rax,[rbp-0x68]
00007FF5BD643317   2d7  bb02000000           movl rbx,0000000000000002
00007FF5BD64331C   2dc  e8f301ea7f           call 00007FF63D4E3514  (Increment_Baseline)    ;; near builtin entry
00007FF5BD643321   2e1  48894598             REX.W movq [rbp-0x68],rax
00007FF5BD643325   2e5  488b058bffffff       REX.W movq rax,[rip+0xffffff8b]
00007FF5BD64332C   2ec  488945b0             REX.W movq [rbp-0x50],rax
00007FF5BD643330   2f0  488b55d0             REX.W movq rdx,[rbp-0x30]
00007FF5BD643334   2f4  48b99147f06366030000 REX.W movq rcx,0000036663F04791    ;; object: 0x036663f04791 <String[6]: #length>
00007FF5BD64333E   2fe  b806000000           movl rax,0000000000000006
00007FF5BD643343   303  e84c40e77f           call 00007FF63D4B7394  (LoadICBaseline)    ;; near builtin entry
00007FF5BD643348   308  488b5598             REX.W movq rdx,[rbp-0x68]
00007FF5BD64334C   30c  bb05000000           movl rbx,0000000000000005
00007FF5BD643351   311  e8fec3e97f           call 00007FF63D4DF754  (LessThan_Baseline)    ;; near builtin entry
00007FF5BD643356   316  493b85b0010000       REX.W cmpq rax,[r13+0x1b0] (root (false_value))
00007FF5BD64335D   31d  7512                 jnz 00007FF5BD643371  <+0x331>
00007FF5BD64335F   31f  4c8b45f0             REX.W movq r8,[rbp-0x10]
00007FF5BD643363   323  4d8b4027             REX.W movq r8,[r8+0x27]
00007FF5BD643367   327  4183400f02           addl [r8+0xf],0x2
00007FF5BD64336C   32c  e912000000           jmp 00007FF5BD643383  <+0x343>
00007FF5BD643371   331  4c8b45f0             REX.W movq r8,[rbp-0x10]
00007FF5BD643375   335  4d8b4027             REX.W movq r8,[r8+0x27]
00007FF5BD643379   339  4183400f02           addl [r8+0xf],0x2
00007FF5BD64337E   33e  e915000000           jmp 00007FF5BD643398  <+0x358>
00007FF5BD643383   343  4c8b45f0             REX.W movq r8,[rbp-0x10]
00007FF5BD643387   347  4d8b4027             REX.W movq r8,[r8+0x27]
00007FF5BD64338B   34b  4181400faa000000     addl [r8+0xf],0xaa
00007FF5BD643393   353  e901060000           jmp 00007FF5BD643999  <+0x959>
00007FF5BD643398   358  488b0518ffffff       REX.W movq rax,[rip+0xffffff18]
00007FF5BD64339F   35f  488b55b0             REX.W movq rdx,[rbp-0x50]
00007FF5BD6433A3   363  bb06000000           movl rbx,0000000000000006
00007FF5BD6433A8   368  e827b7e97f           call 00007FF63D4DEAD4  (Equal_Baseline)    ;; near builtin entry
00007FF5BD6433AD   36d  493b85b0010000       REX.W cmpq rax,[r13+0x1b0] (root (false_value))
00007FF5BD6433B4   374  7515                 jnz 00007FF5BD6433CB  <+0x38b>
00007FF5BD6433B6   376  4c8b45f0             REX.W movq r8,[rbp-0x10]
00007FF5BD6433BA   37a  4d8b4027             REX.W movq r8,[r8+0x27]
00007FF5BD6433BE   37e  4181400f96000000     addl [r8+0xf],0x96
00007FF5BD6433C6   386  e90d050000           jmp 00007FF5BD6438D8  <+0x898>
00007FF5BD6433CB   38b  488b75f8             REX.W movq rsi,[rbp-0x8]
00007FF5BD6433CF   38f  49ba298454256e030000 REX.W movq r10,0000036E25548429    ;; object: 0x036e25548429 <ScopeInfo BLOCK_SCOPE>
00007FF5BD6433D9   399  4152                 push r10
00007FF5BD6433DB   39b  b801000000           movl rax,0000000000000001
00007FF5BD6433E0   3a0  488b1d02feffff       REX.W movq rbx,[rip+0xfffffe02]
00007FF5BD6433E7   3a7  e8a82eec7f           call 00007FF63D506294  (CEntry_Return1_ArgvOnStack_NoBuiltinExit)    ;; near builtin entry
00007FF5BD6433EC   3ac  4c8b45f8             REX.W movq r8,[rbp-0x8]
00007FF5BD6433F0   3b0  488945f8             REX.W movq [rbp-0x8],rax
00007FF5BD6433F4   3b4  4c898578ffffff       REX.W movq [rbp-0x88],r8
00007FF5BD6433FB   3bb  498b8598010000       REX.W movq rax,[r13+0x198] (root (the_hole_value))
00007FF5BD643402   3c2  488bc8               REX.W movq rcx,rax
00007FF5BD643405   3c5  488b7df8             REX.W movq rdi,[rbp-0x8]
00007FF5BD643409   3c9  48894f1f             REX.W movq [rdi+0x1f],rcx
00007FF5BD64340D   3cd  f6c101               testb rcx,0x1
00007FF5BD643410   3d0  0f8426000000         jz 00007FF5BD64343C  <+0x3fc>
00007FF5BD643416   3d6  4c8d471f             REX.W leaq r8,[rdi+0x1f]
00007FF5BD64341A   3da  4881e10000fcff       REX.W andq rcx,0xfffffffffffc0000
00007FF5BD643421   3e1  f6410802             testb [rcx+0x8],0x2
00007FF5BD643425   3e5  7415                 jz 00007FF5BD64343C  <+0x3fc>
00007FF5BD643427   3e7  48c7c10000fcff       REX.W movq rcx,0xfffc0000
00007FF5BD64342E   3ee  4823cf               REX.W andq rcx,rdi
00007FF5BD643431   3f1  f6410804             testb [rcx+0x8],0x4
00007FF5BD643435   3f5  7405                 jz 00007FF5BD64343C  <+0x3fc>
00007FF5BD643437   3f7  e8d894e27f           call 00007FF63D46C914  (RecordWriteIgnoreFP)    ;; near builtin entry
00007FF5BD64343C   3fc  498b8598010000       REX.W movq rax,[r13+0x198] (root (the_hole_value))
00007FF5BD643443   403  488bc8               REX.W movq rcx,rax
00007FF5BD643446   406  488b7df8             REX.W movq rdi,[rbp-0x8]
00007FF5BD64344A   40a  48894f27             REX.W movq [rdi+0x27],rcx
00007FF5BD64344E   40e  f6c101               testb rcx,0x1
00007FF5BD643451   411  0f8426000000         jz 00007FF5BD64347D  <+0x43d>
00007FF5BD643457   417  4c8d4727             REX.W leaq r8,[rdi+0x27]
00007FF5BD64345B   41b  4881e10000fcff       REX.W andq rcx,0xfffffffffffc0000
00007FF5BD643462   422  f6410802             testb [rcx+0x8],0x2
00007FF5BD643466   426  7415                 jz 00007FF5BD64347D  <+0x43d>
00007FF5BD643468   428  48c7c10000fcff       REX.W movq rcx,0xfffc0000
00007FF5BD64346F   42f  4823cf               REX.W andq rcx,rdi
00007FF5BD643472   432  f6410804             testb [rcx+0x8],0x4
00007FF5BD643476   436  7405                 jz 00007FF5BD64347D  <+0x43d>
00007FF5BD643478   438  e89794e27f           call 00007FF63D46C914  (RecordWriteIgnoreFP)    ;; near builtin entry
00007FF5BD64347D   43d  488b5dd8             REX.W movq rbx,[rbp-0x28]
00007FF5BD643481   441  488b5b1f             REX.W movq rbx,[rbx+0x1f]
00007FF5BD643485   445  488b5b0f             REX.W movq rbx,[rbx+0xf]
00007FF5BD643489   449  48b8818454256e030000 REX.W movq rax,0000036E25548481    ;; object: 0x036e25548481 <SharedFunctionInfo set>
00007FF5BD643493   453  e8fc61f07f           call 00007FF63D549694  (FastNewClosureBaseline)    ;; near builtin entry
00007FF5BD643498   458  488bc8               REX.W movq rcx,rax
00007FF5BD64349B   45b  488b7df8             REX.W movq rdi,[rbp-0x8]
00007FF5BD64349F   45f  48894f2f             REX.W movq [rdi+0x2f],rcx
00007FF5BD6434A3   463  f6c101               testb rcx,0x1
00007FF5BD6434A6   466  0f8426000000         jz 00007FF5BD6434D2  <+0x492>
00007FF5BD6434AC   46c  4c8d472f             REX.W leaq r8,[rdi+0x2f]
00007FF5BD6434B0   470  4881e10000fcff       REX.W andq rcx,0xfffffffffffc0000
00007FF5BD6434B7   477  f6410802             testb [rcx+0x8],0x2
00007FF5BD6434BB   47b  7415                 jz 00007FF5BD6434D2  <+0x492>
00007FF5BD6434BD   47d  48c7c10000fcff       REX.W movq rcx,0xfffc0000
00007FF5BD6434C4   484  4823cf               REX.W andq rcx,rdi
00007FF5BD6434C7   487  f6410804             testb [rcx+0x8],0x4
00007FF5BD6434CB   48b  7405                 jz 00007FF5BD6434D2  <+0x492>
00007FF5BD6434CD   48d  e84294e27f           call 00007FF63D46C914  (RecordWriteIgnoreFP)    ;; near builtin entry
00007FF5BD6434D2   492  488b5dd8             REX.W movq rbx,[rbp-0x28]
00007FF5BD6434D6   496  488b5b1f             REX.W movq rbx,[rbx+0x1f]
00007FF5BD6434DA   49a  488b5b17             REX.W movq rbx,[rbx+0x17]
00007FF5BD6434DE   49e  48b8d18454256e030000 REX.W movq rax,0000036E255484D1    ;; object: 0x036e255484d1 <SharedFunctionInfo get>
00007FF5BD6434E8   4a8  e8a761f07f           call 00007FF63D549694  (FastNewClosureBaseline)    ;; near builtin entry
00007FF5BD6434ED   4ad  48894590             REX.W movq [rbp-0x70],rax
00007FF5BD6434F1   4b1  488b4598             REX.W movq rax,[rbp-0x68]
00007FF5BD6434F5   4b5  488b55d0             REX.W movq rdx,[rbp-0x30]
00007FF5BD6434F9   4b9  b90e000000           movl rcx,000000000000000E
00007FF5BD6434FE   4be  e8d1f6e77f           call 00007FF63D4C2BD4  (KeyedLoadICBaseline)    ;; near builtin entry
00007FF5BD643503   4c3  488bc8               REX.W movq rcx,rax
00007FF5BD643506   4c6  488b7df8             REX.W movq rdi,[rbp-0x8]
00007FF5BD64350A   4ca  48894f1f             REX.W movq [rdi+0x1f],rcx
00007FF5BD64350E   4ce  f6c101               testb rcx,0x1
00007FF5BD643511   4d1  0f8426000000         jz 00007FF5BD64353D  <+0x4fd>
00007FF5BD643517   4d7  4c8d471f             REX.W leaq r8,[rdi+0x1f]
00007FF5BD64351B   4db  4881e10000fcff       REX.W andq rcx,0xfffffffffffc0000
00007FF5BD643522   4e2  f6410802             testb [rcx+0x8],0x2
00007FF5BD643526   4e6  7415                 jz 00007FF5BD64353D  <+0x4fd>
00007FF5BD643528   4e8  48c7c10000fcff       REX.W movq rcx,0xfffc0000
00007FF5BD64352F   4ef  4823cf               REX.W andq rcx,rdi
00007FF5BD643532   4f2  f6410804             testb [rcx+0x8],0x4
00007FF5BD643536   4f6  7405                 jz 00007FF5BD64353D  <+0x4fd>
00007FF5BD643538   4f8  e8d793e27f           call 00007FF63D46C914  (RecordWriteIgnoreFP)    ;; near builtin entry
00007FF5BD64353D   4fd  498b8590010000       REX.W movq rax,[r13+0x190] (root (undefined_value))
00007FF5BD643544   504  488bc8               REX.W movq rcx,rax
00007FF5BD643547   507  488b7df8             REX.W movq rdi,[rbp-0x8]
00007FF5BD64354B   50b  48894f27             REX.W movq [rdi+0x27],rcx
00007FF5BD64354F   50f  f6c101               testb rcx,0x1
00007FF5BD643552   512  0f8426000000         jz 00007FF5BD64357E  <+0x53e>
00007FF5BD643558   518  4c8d4727             REX.W leaq r8,[rdi+0x27]
00007FF5BD64355C   51c  4881e10000fcff       REX.W andq rcx,0xfffffffffffc0000
00007FF5BD643563   523  f6410802             testb [rcx+0x8],0x2
00007FF5BD643567   527  7415                 jz 00007FF5BD64357E  <+0x53e>
00007FF5BD643569   529  48c7c10000fcff       REX.W movq rcx,0xfffc0000
00007FF5BD643570   530  4823cf               REX.W andq rcx,rdi
00007FF5BD643573   533  f6410804             testb [rcx+0x8],0x4
00007FF5BD643577   537  7405                 jz 00007FF5BD64357E  <+0x53e>
00007FF5BD643579   539  e89693e27f           call 00007FF63D46C914  (RecordWriteIgnoreFP)    ;; near builtin entry
00007FF5BD64357E   53e  4c8b4588             REX.W movq r8,[rbp-0x78]
00007FF5BD643582   542  498b8087000000       REX.W movq rax,[r8+0x87]
00007FF5BD643589   549  493b8598010000       REX.W cmpq rax,[r13+0x198] (root (the_hole_value))
00007FF5BD643590   550  0f8525000000         jnz 00007FF5BD6435BB  <+0x57b>
00007FF5BD643596   556  488b75f8             REX.W movq rsi,[rbp-0x8]
00007FF5BD64359A   55a  49bab115e4be23010000 REX.W movq r10,00000123BEE415B1    ;; object: 0x0123bee415b1 <String[20]: #ObjectDefineProperty>
00007FF5BD6435A4   564  4152                 push r10
00007FF5BD6435A6   566  b801000000           movl rax,0000000000000001
00007FF5BD6435AB   56b  48bb5038f83cf67f0000 REX.W movq rbx,00007FF63CF83850
00007FF5BD6435B5   575  e8da2cec7f           call 00007FF63D506294  (CEntry_Return1_ArgvOnStack_NoBuiltinExit)    ;; near builtin entry
00007FF5BD6435BA   57a  cc                   int3l
00007FF5BD6435BB   57b  48898570ffffff       REX.W movq [rbp-0x90],rax
00007FF5BD6435C2   582  4c8b45f8             REX.W movq r8,[rbp-0x8]
00007FF5BD6435C6   586  498b402f             REX.W movq rax,[r8+0x2f]
00007FF5BD6435CA   58a  48898568ffffff       REX.W movq [rbp-0x98],rax
00007FF5BD6435D1   591  48b8c947f06366030000 REX.W movq rax,0000036663F047C9    ;; object: 0x036663f047c9 <String[4]: #name>
00007FF5BD6435DB   59b  48898560ffffff       REX.W movq [rbp-0xa0],rax
00007FF5BD6435E2   5a2  488b45d8             REX.W movq rax,[rbp-0x28]
00007FF5BD6435E6   5a6  bb12000000           movl rbx,0000000000000012
00007FF5BD6435EB   5ab  48b9218554256e030000 REX.W movq rcx,0000036E25548521    ;; object: 0x036e25548521 <ObjectBoilerplateDescription[3]>
00007FF5BD6435F5   5b5  488b1559fcffff       REX.W movq rdx,[rip+0xfffffc59]
00007FF5BD6435FC   5bc  488b75f8             REX.W movq rsi,[rbp-0x8]
00007FF5BD643600   5c0  e88f6af07f           call 00007FF63D54A094  (CreateShallowObjectLiteral)    ;; near builtin entry
00007FF5BD643605   5c5  48898558ffffff       REX.W movq [rbp-0xa8],rax
00007FF5BD64360C   5cc  48b80172f06366030000 REX.W movq rax,0000036663F07201    ;; object: 0x036663f07201 <String[4]: #set >
00007FF5BD643616   5d6  48898550ffffff       REX.W movq [rbp-0xb0],rax
00007FF5BD64361D   5dd  4c8b45f8             REX.W movq r8,[rbp-0x8]
00007FF5BD643621   5e1  498b401f             REX.W movq rax,[r8+0x1f]
00007FF5BD643625   5e5  488b75f8             REX.W movq rsi,[rbp-0x8]
00007FF5BD643629   5e9  e8a62af07f           call 00007FF63D5460D4  (ToString)    ;; near builtin entry
00007FF5BD64362E   5ee  488b9550ffffff       REX.W movq rdx,[rbp-0xb0]
00007FF5BD643635   5f5  bb0a000000           movl rbx,000000000000000A
00007FF5BD64363A   5fa  e8d515e97f           call 00007FF63D4D4C14  (Add_Baseline)    ;; near builtin entry
00007FF5BD64363F   5ff  488b9558ffffff       REX.W movq rdx,[rbp-0xa8]
00007FF5BD643646   606  48b92148f06366030000 REX.W movq rcx,0000036663F04821    ;; object: 0x036663f04821 <String[5]: #value>
00007FF5BD643650   610  bf16000000           movl rdi,0000000000000016
00007FF5BD643655   615  e8fa3ae87f           call 00007FF63D4C7154  (DefineNamedOwnICBaseline)    ;; near builtin entry
00007FF5BD64365A   61a  488b8570ffffff       REX.W movq rax,[rbp-0x90]
00007FF5BD643661   621  bb040d0000           movl rbx,0000000000000D04
00007FF5BD643666   626  ffb558ffffff         push [rbp-0xa8]
00007FF5BD64366C   62c  ffb560ffffff         push [rbp-0xa0]
00007FF5BD643672   632  ffb568ffffff         push [rbp-0x98]
00007FF5BD643678   638  41ffb590010000       push [r13+0x190] (root (undefined_value))
00007FF5BD64367F   63f  e850a4e27f           call 00007FF63D46DAD4  (Call_ReceiverIsNullOrUndefined_Baseline_Compact)    ;; near builtin entry
00007FF5BD643684   644  4c8b4588             REX.W movq r8,[rbp-0x78]
00007FF5BD643688   648  498b8087000000       REX.W movq rax,[r8+0x87]
00007FF5BD64368F   64f  493b8598010000       REX.W cmpq rax,[r13+0x198] (root (the_hole_value))
00007FF5BD643696   656  0f8522000000         jnz 00007FF5BD6436BE  <+0x67e>
00007FF5BD64369C   65c  488b75f8             REX.W movq rsi,[rbp-0x8]
00007FF5BD6436A0   660  49bab115e4be23010000 REX.W movq r10,00000123BEE415B1    ;; object: 0x0123bee415b1 <String[20]: #ObjectDefineProperty>
00007FF5BD6436AA   66a  4152                 push r10
00007FF5BD6436AC   66c  b801000000           movl rax,0000000000000001
00007FF5BD6436B1   671  488b1df5feffff       REX.W movq rbx,[rip+0xfffffef5]
00007FF5BD6436B8   678  e8d72bec7f           call 00007FF63D506294  (CEntry_Return1_ArgvOnStack_NoBuiltinExit)    ;; near builtin entry
00007FF5BD6436BD   67d  cc                   int3l
00007FF5BD6436BE   67e  48898570ffffff       REX.W movq [rbp-0x90],rax
00007FF5BD6436C5   685  48b8c947f06366030000 REX.W movq rax,0000036663F047C9    ;; object: 0x036663f047c9 <String[4]: #name>
00007FF5BD6436CF   68f  48898560ffffff       REX.W movq [rbp-0xa0],rax
00007FF5BD6436D6   696  488b45d8             REX.W movq rax,[rbp-0x28]
00007FF5BD6436DA   69a  bb1e000000           movl rbx,000000000000001E
00007FF5BD6436DF   69f  48b9498554256e030000 REX.W movq rcx,0000036E25548549    ;; object: 0x036e25548549 <ObjectBoilerplateDescription[3]>
00007FF5BD6436E9   6a9  488b1565fbffff       REX.W movq rdx,[rip+0xfffffb65]
00007FF5BD6436F0   6b0  488b75f8             REX.W movq rsi,[rbp-0x8]
00007FF5BD6436F4   6b4  e89b69f07f           call 00007FF63D54A094  (CreateShallowObjectLiteral)    ;; near builtin entry
00007FF5BD6436F9   6b9  48898558ffffff       REX.W movq [rbp-0xa8],rax
00007FF5BD643700   6c0  48b8b963f06366030000 REX.W movq rax,0000036663F063B9    ;; object: 0x036663f063b9 <String[4]: #get >
00007FF5BD64370A   6ca  48898550ffffff       REX.W movq [rbp-0xb0],rax
00007FF5BD643711   6d1  4c8b45f8             REX.W movq r8,[rbp-0x8]
00007FF5BD643715   6d5  498b401f             REX.W movq rax,[r8+0x1f]
00007FF5BD643719   6d9  488b75f8             REX.W movq rsi,[rbp-0x8]
00007FF5BD64371D   6dd  e8b229f07f           call 00007FF63D5460D4  (ToString)    ;; near builtin entry
00007FF5BD643722   6e2  488b9550ffffff       REX.W movq rdx,[rbp-0xb0]
00007FF5BD643729   6e9  bb10000000           movl rbx,0000000000000010
00007FF5BD64372E   6ee  e8e114e97f           call 00007FF63D4D4C14  (Add_Baseline)    ;; near builtin entry
00007FF5BD643733   6f3  488b9558ffffff       REX.W movq rdx,[rbp-0xa8]
00007FF5BD64373A   6fa  48b92148f06366030000 REX.W movq rcx,0000036663F04821    ;; object: 0x036663f04821 <String[5]: #value>
00007FF5BD643744   704  bf22000000           movl rdi,0000000000000022
00007FF5BD643749   709  e8063ae87f           call 00007FF63D4C7154  (DefineNamedOwnICBaseline)    ;; near builtin entry
00007FF5BD64374E   70e  4c8b4590             REX.W movq r8,[rbp-0x70]
00007FF5BD643752   712  4c898568ffffff       REX.W movq [rbp-0x98],r8
00007FF5BD643759   719  488b8570ffffff       REX.W movq rax,[rbp-0x90]
00007FF5BD643760   720  bb04130000           movl rbx,0000000000001304
00007FF5BD643765   725  ffb558ffffff         push [rbp-0xa8]
00007FF5BD64376B   72b  ffb560ffffff         push [rbp-0xa0]
00007FF5BD643771   731  ffb568ffffff         push [rbp-0x98]
00007FF5BD643777   737  41ffb590010000       push [r13+0x190] (root (undefined_value))
00007FF5BD64377E   73e  e851a3e27f           call 00007FF63D46DAD4  (Call_ReceiverIsNullOrUndefined_Baseline_Compact)    ;; near builtin entry
00007FF5BD643783   743  4c8b45f8             REX.W movq r8,[rbp-0x8]
00007FF5BD643787   747  498b401f             REX.W movq rax,[r8+0x1f]
00007FF5BD64378B   74b  48898568ffffff       REX.W movq [rbp-0x98],rax
00007FF5BD643792   752  488b45d8             REX.W movq rax,[rbp-0x28]
00007FF5BD643796   756  bb2a000000           movl rbx,000000000000002A
00007FF5BD64379B   75b  48b9718554256e030000 REX.W movq rcx,0000036E25548571    ;; object: 0x036e25548571 <ObjectBoilerplateDescription[9]>
00007FF5BD6437A5   765  488b15a9faffff       REX.W movq rdx,[rip+0xfffffaa9]
00007FF5BD6437AC   76c  488b75f8             REX.W movq rsi,[rbp-0x8]
00007FF5BD6437B0   770  e8df68f07f           call 00007FF63D54A094  (CreateShallowObjectLiteral)    ;; near builtin entry
00007FF5BD6437B5   775  48898560ffffff       REX.W movq [rbp-0xa0],rax
00007FF5BD6437BC   77c  488b45c8             REX.W movq rax,[rbp-0x38]
00007FF5BD6437C0   780  488b9560ffffff       REX.W movq rdx,[rbp-0xa0]
00007FF5BD6437C7   787  48b9e147f06366030000 REX.W movq rcx,0000036663F047E1    ;; object: 0x036663f047e1 <String[10]: #enumerable>
00007FF5BD6437D1   791  bf2c000000           movl rdi,000000000000002C
00007FF5BD6437D6   796  e87939e87f           call 00007FF63D4C7154  (DefineNamedOwnICBaseline)    ;; near builtin entry
00007FF5BD6437DB   79b  488b4590             REX.W movq rax,[rbp-0x70]
00007FF5BD6437DF   79f  488b9560ffffff       REX.W movq rdx,[rbp-0xa0]
00007FF5BD6437E6   7a6  48b9d163f06366030000 REX.W movq rcx,0000036663F063D1    ;; object: 0x036663f063d1 <String[3]: #get>
00007FF5BD6437F0   7b0  bf30000000           movl rdi,0000000000000030
00007FF5BD6437F5   7b5  e85a39e87f           call 00007FF63D4C7154  (DefineNamedOwnICBaseline)    ;; near builtin entry
00007FF5BD6437FA   7ba  4c8b45f8             REX.W movq r8,[rbp-0x8]
00007FF5BD6437FE   7be  498b402f             REX.W movq rax,[r8+0x2f]
00007FF5BD643802   7c2  488b9560ffffff       REX.W movq rdx,[rbp-0xa0]
00007FF5BD643809   7c9  48b91972f06366030000 REX.W movq rcx,0000036663F07219    ;; object: 0x036663f07219 <String[3]: #set>
00007FF5BD643813   7d3  bf34000000           movl rdi,0000000000000034
00007FF5BD643818   7d8  e83739e87f           call 00007FF63D4C7154  (DefineNamedOwnICBaseline)    ;; near builtin entry
00007FF5BD64381D   7dd  488b8560ffffff       REX.W movq rax,[rbp-0xa0]
00007FF5BD643824   7e4  488b55a8             REX.W movq rdx,[rbp-0x58]
00007FF5BD643828   7e8  488b8d68ffffff       REX.W movq rcx,[rbp-0x98]
00007FF5BD64382F   7ef  bf38000000           movl rdi,0000000000000038
00007FF5BD643834   7f4  e8db52e87f           call 00007FF63D4C8B14  (KeyedStoreICBaseline)    ;; near builtin entry
00007FF5BD643839   7f9  4c8b8578ffffff       REX.W movq r8,[rbp-0x88]
00007FF5BD643840   800  4c8945f8             REX.W movq [rbp-0x8],r8
00007FF5BD643844   804  33c0                 xorl rax,rax
00007FF5BD643846   806  488945b0             REX.W movq [rbp-0x50],rax
00007FF5BD64384A   80a  4c8b4598             REX.W movq r8,[rbp-0x68]
00007FF5BD64384E   80e  4c8945c0             REX.W movq [rbp-0x40],r8
00007FF5BD643852   812  488b45c0             REX.W movq rax,[rbp-0x40]
00007FF5BD643856   816  4c8b45d8             REX.W movq r8,[rbp-0x28]
00007FF5BD64385A   81a  458a4814             movb r9l,[r8+0x14]
00007FF5BD64385E   81e  4180f901             cmpb r9l,0x1
00007FF5BD643862   822  7738                 ja 00007FF5BD64389C  <+0x85c>
00007FF5BD643864   824  4c8b45f0             REX.W movq r8,[rbp-0x10]
00007FF5BD643868   828  4d8b4027             REX.W movq r8,[r8+0x27]
00007FF5BD64386C   82c  4181400f63ffffff     addl [r8+0xf],0xffffff63
00007FF5BD643874   834  0f8d1efbffff         jge 00007FF5BD643398  <+0x358>
00007FF5BD64387A   83a  50                   push rax
00007FF5BD64387B   83b  488b75f8             REX.W movq rsi,[rbp-0x8]
00007FF5BD64387F   83f  ff75f0               push [rbp-0x10]
00007FF5BD643882   842  b801000000           movl rax,0000000000000001
00007FF5BD643887   847  48bb9021f83cf67f0000 REX.W movq rbx,00007FF63CF82190
00007FF5BD643891   851  e8fe29ec7f           call 00007FF63D506294  (CEntry_Return1_ArgvOnStack_NoBuiltinExit)    ;; near builtin entry
00007FF5BD643896   856  58                   pop rax
00007FF5BD643897   857  e9fcfaffff           jmp 00007FF5BD643398  <+0x358>
00007FF5BD64389C   85c  498b8027010000       REX.W movq rax,[r8+0x127]
00007FF5BD6438A3   863  83f803               cmpl rax,0x3
00007FF5BD6438A6   866  0f8415000000         jz 00007FF5BD6438C1  <+0x881>
00007FF5BD6438AC   86c  4883e0fd             REX.W andq rax,0xfd
00007FF5BD6438B0   870  f6403501             testb [rax+0x35],0x1
00007FF5BD6438B4   874  7417                 jz 00007FF5BD6438CD  <+0x88d>
00007FF5BD6438B6   876  49c7802701000003000000 REX.W movq [r8+0x127],0x3
00007FF5BD6438C1   881  33c0                 xorl rax,rax
00007FF5BD6438C3   883  4983e107             REX.W andq r9,0x7
00007FF5BD6438C7   887  4180f901             cmpb r9l,0x1
00007FF5BD6438CB   88b  7697                 jna 00007FF5BD643864  <+0x824>
00007FF5BD6438CD   88d  488b75f8             REX.W movq rsi,[rbp-0x8]
00007FF5BD6438D1   891  e8be4ce37f           call 00007FF63D478594  (BaselineOnStackReplacement)    ;; near builtin entry
00007FF5BD6438D6   896  eb8c                 jmp 00007FF5BD643864  <+0x824>
00007FF5BD6438D8   898  488b05d8f9ffff       REX.W movq rax,[rip+0xfffff9d8]
00007FF5BD6438DF   89f  488b55b0             REX.W movq rdx,[rbp-0x50]
00007FF5BD6438E3   8a3  bb1f000000           movl rbx,000000000000001F
00007FF5BD6438E8   8a8  e8e7b1e97f           call 00007FF63D4DEAD4  (Equal_Baseline)    ;; near builtin entry
00007FF5BD6438ED   8ad  493b85b0010000       REX.W cmpq rax,[r13+0x1b0] (root (false_value))
00007FF5BD6438F4   8b4  7512                 jnz 00007FF5BD643908  <+0x8c8>
00007FF5BD6438F6   8b6  4c8b45f0             REX.W movq r8,[rbp-0x10]
00007FF5BD6438FA   8ba  4d8b4027             REX.W movq r8,[r8+0x27]
00007FF5BD6438FE   8be  4183400f02           addl [r8+0xf],0x2
00007FF5BD643903   8c3  e912000000           jmp 00007FF5BD64391A  <+0x8da>
00007FF5BD643908   8c8  4c8b45f0             REX.W movq r8,[rbp-0x10]
00007FF5BD64390C   8cc  4d8b4027             REX.W movq r8,[r8+0x27]
00007FF5BD643910   8d0  4183400f04           addl [r8+0xf],0x4
00007FF5BD643915   8d5  e97f000000           jmp 00007FF5BD643999  <+0x959>
00007FF5BD64391A   8da  4c8b45d8             REX.W movq r8,[rbp-0x28]
00007FF5BD64391E   8de  458a4814             movb r9l,[r8+0x14]
00007FF5BD643922   8e2  4180f900             cmpb r9l,0x0
00007FF5BD643926   8e6  7735                 ja 00007FF5BD64395D  <+0x91d>
00007FF5BD643928   8e8  4c8b45f0             REX.W movq r8,[rbp-0x10]
00007FF5BD64392C   8ec  4d8b4027             REX.W movq r8,[r8+0x27]
00007FF5BD643930   8f0  4181400f33ffffff     addl [r8+0xf],0xffffff33
00007FF5BD643938   8f8  0f8d85f9ffff         jge 00007FF5BD6432C3  <+0x283>
00007FF5BD64393E   8fe  50                   push rax
00007FF5BD64393F   8ff  488b75f8             REX.W movq rsi,[rbp-0x8]
00007FF5BD643943   903  ff75f0               push [rbp-0x10]
00007FF5BD643946   906  b801000000           movl rax,0000000000000001
00007FF5BD64394B   90b  488b1d37ffffff       REX.W movq rbx,[rip+0xffffff37]
00007FF5BD643952   912  e83d29ec7f           call 00007FF63D506294  (CEntry_Return1_ArgvOnStack_NoBuiltinExit)    ;; near builtin entry
00007FF5BD643957   917  58                   pop rax
00007FF5BD643958   918  e966f9ffff           jmp 00007FF5BD6432C3  <+0x283>
00007FF5BD64395D   91d  498b8037010000       REX.W movq rax,[r8+0x137]
00007FF5BD643964   924  83f803               cmpl rax,0x3
00007FF5BD643967   927  0f8415000000         jz 00007FF5BD643982  <+0x942>
00007FF5BD64396D   92d  4883e0fd             REX.W andq rax,0xfd
00007FF5BD643971   931  f6403501             testb [rax+0x35],0x1
00007FF5BD643975   935  7417                 jz 00007FF5BD64398E  <+0x94e>
00007FF5BD643977   937  49c7803701000003000000 REX.W movq [r8+0x137],0x3
00007FF5BD643982   942  33c0                 xorl rax,rax
00007FF5BD643984   944  4983e107             REX.W andq r9,0x7
00007FF5BD643988   948  4180f900             cmpb r9l,0x0
00007FF5BD64398C   94c  769a                 jna 00007FF5BD643928  <+0x8e8>
00007FF5BD64398E   94e  488b75f8             REX.W movq rsi,[rbp-0x8]
00007FF5BD643992   952  e8fd4be37f           call 00007FF63D478594  (BaselineOnStackReplacement)    ;; near builtin entry
00007FF5BD643997   957  eb8f                 jmp 00007FF5BD643928  <+0x8e8>
00007FF5BD643999   959  4c8b4588             REX.W movq r8,[rbp-0x78]
00007FF5BD64399D   95d  498b407f             REX.W movq rax,[r8+0x7f]
00007FF5BD6439A1   961  493b8598010000       REX.W cmpq rax,[r13+0x198] (root (the_hole_value))
00007FF5BD6439A8   968  0f8522000000         jnz 00007FF5BD6439D0  <+0x990>
00007FF5BD6439AE   96e  488b75f8             REX.W movq rsi,[rbp-0x8]
00007FF5BD6439B2   972  49ba8915e4be23010000 REX.W movq r10,00000123BEE41589    ;; object: 0x0123bee41589 <String[22]: #ObjectDefineProperties>
00007FF5BD6439BC   97c  4152                 push r10
00007FF5BD6439BE   97e  b801000000           movl rax,0000000000000001
00007FF5BD6439C3   983  488b1de3fbffff       REX.W movq rbx,[rip+0xfffffbe3]
00007FF5BD6439CA   98a  e8c528ec7f           call 00007FF63D506294  (CEntry_Return1_ArgvOnStack_NoBuiltinExit)    ;; near builtin entry
00007FF5BD6439CF   98f  cc                   int3l
00007FF5BD6439D0   990  48898578ffffff       REX.W movq [rbp-0x88],rax
00007FF5BD6439D7   997  4c8b4580             REX.W movq r8,[rbp-0x80]
00007FF5BD6439DB   99b  498b401f             REX.W movq rax,[r8+0x1f]
00007FF5BD6439DF   99f  48898570ffffff       REX.W movq [rbp-0x90],rax
00007FF5BD6439E6   9a6  488b8578ffffff       REX.W movq rax,[rbp-0x88]
00007FF5BD6439ED   9ad  bb03210000           movl rbx,0000000000002103
00007FF5BD6439F2   9b2  ff75a8               push [rbp-0x58]
00007FF5BD6439F5   9b5  ffb570ffffff         push [rbp-0x90]
00007FF5BD6439FB   9bb  41ffb590010000       push [r13+0x190] (root (undefined_value))
00007FF5BD643A02   9c2  e8cda0e27f           call 00007FF63D46DAD4  (Call_ReceiverIsNullOrUndefined_Baseline_Compact)    ;; near builtin entry
00007FF5BD643A07   9c7  4c8b4580             REX.W movq r8,[rbp-0x80]
00007FF5BD643A0B   9cb  4c8945f8             REX.W movq [rbp-0x8],r8
00007FF5BD643A0F   9cf  498b8590010000       REX.W movq rax,[r13+0x190] (root (undefined_value))
00007FF5BD643A16   9d6  bb05000000           movl rbx,0000000000000005
00007FF5BD643A1B   9db  48c7c1e9feffff       REX.W movq rcx,0xfffffee9
00007FF5BD643A22   9e2  e9ed4be37f           jmp 00007FF63D478614  (BaselineLeaveFrame)    ;; near builtin entry
00007FF5BD643A27   9e7  cc                   int3l


RelocInfo (size = 149)
00007FF5BD643047  full embedded object  (0x036e25548189 <BytecodeArray[279]>)
00007FF5BD643050  near builtin entry
00007FF5BD64306A  full embedded object  (0x036e25548381 <ScopeInfo FUNCTION_SCOPE>)
00007FF5BD64307C  near builtin entry
00007FF5BD6430C9  near builtin entry
00007FF5BD64310A  near builtin entry
00007FF5BD643148  near builtin entry
00007FF5BD643186  near builtin entry
00007FF5BD6431D8  full embedded object  (0x036e255483f1 <ScopeInfo BLOCK_SCOPE>)
00007FF5BD6431F2  near builtin entry
00007FF5BD64323F  near builtin entry
00007FF5BD64324B  full embedded object  (0x036663f02239 <ObjectBoilerplateDescription[1]>)
00007FF5BD643262  near builtin entry
00007FF5BD6432A7  near builtin entry
00007FF5BD6432DC  near builtin entry
00007FF5BD64331D  near builtin entry
00007FF5BD643336  full embedded object  (0x036663f04791 <String[6]: #length>)
00007FF5BD643344  near builtin entry
00007FF5BD643352  near builtin entry
00007FF5BD6433A9  near builtin entry
00007FF5BD6433D1  full embedded object  (0x036e25548429 <ScopeInfo BLOCK_SCOPE>)
00007FF5BD6433E8  near builtin entry
00007FF5BD643438  near builtin entry
00007FF5BD643479  near builtin entry
00007FF5BD64348B  full embedded object  (0x036e25548481 <SharedFunctionInfo set>)
00007FF5BD643494  near builtin entry
00007FF5BD6434CE  near builtin entry
00007FF5BD6434E0  full embedded object  (0x036e255484d1 <SharedFunctionInfo get>)
00007FF5BD6434E9  near builtin entry
00007FF5BD6434FF  near builtin entry
00007FF5BD643539  near builtin entry
00007FF5BD64357A  near builtin entry
00007FF5BD64359C  full embedded object  (0x0123bee415b1 <String[20]: #ObjectDefineProperty>)
00007FF5BD6435B6  near builtin entry
00007FF5BD6435D3  full embedded object  (0x036663f047c9 <String[4]: #name>)
00007FF5BD6435ED  full embedded object  (0x036e25548521 <ObjectBoilerplateDescription[3]>)
00007FF5BD643601  near builtin entry
00007FF5BD64360E  full embedded object  (0x036663f07201 <String[4]: #set >)
00007FF5BD64362A  near builtin entry
00007FF5BD64363B  near builtin entry
00007FF5BD643648  full embedded object  (0x036663f04821 <String[5]: #value>)
00007FF5BD643656  near builtin entry
00007FF5BD643680  near builtin entry
00007FF5BD6436A2  full embedded object  (0x0123bee415b1 <String[20]: #ObjectDefineProperty>)
00007FF5BD6436B9  near builtin entry
00007FF5BD6436C7  full embedded object  (0x036663f047c9 <String[4]: #name>)
00007FF5BD6436E1  full embedded object  (0x036e25548549 <ObjectBoilerplateDescription[3]>)
00007FF5BD6436F5  near builtin entry
00007FF5BD643702  full embedded object  (0x036663f063b9 <String[4]: #get >)
00007FF5BD64371E  near builtin entry
00007FF5BD64372F  near builtin entry
00007FF5BD64373C  full embedded object  (0x036663f04821 <String[5]: #value>)
00007FF5BD64374A  near builtin entry
00007FF5BD64377F  near builtin entry
00007FF5BD64379D  full embedded object  (0x036e25548571 <ObjectBoilerplateDescription[9]>)
00007FF5BD6437B1  near builtin entry
00007FF5BD6437C9  full embedded object  (0x036663f047e1 <String[10]: #enumerable>)
00007FF5BD6437D7  near builtin entry
00007FF5BD6437E8  full embedded object  (0x036663f063d1 <String[3]: #get>)
00007FF5BD6437F6  near builtin entry
00007FF5BD64380B  full embedded object  (0x036663f07219 <String[3]: #set>)
00007FF5BD643819  near builtin entry
00007FF5BD643835  near builtin entry
00007FF5BD643892  near builtin entry
00007FF5BD6438D2  near builtin entry
00007FF5BD6438E9  near builtin entry
00007FF5BD643953  near builtin entry
00007FF5BD643993  near builtin entry
00007FF5BD6439B4  full embedded object  (0x0123bee41589 <String[22]: #ObjectDefineProperties>)
00007FF5BD6439CB  near builtin entry
00007FF5BD643A03  near builtin entry
00007FF5BD643A23  near builtin entry

000003F7CA6C53D1: [Code] in OldSpace
 - map: 0x036663f01019 <Map[88](CODE_TYPE)>
 - kind: BASELINE
 - instruction_stream: 0x7ff5bd643a31 <InstructionStream BASELINE>
 - code_entry_point: 00007FF5BD643A40
 - kind_specific_flags: 0
00007FF5BD643A31: [InstructionStream]
 - map: 0x036663f00951 <Map(INSTRUCTION_STREAM_TYPE)>
 - code: 0x03f7ca6c53d1 <Code BASELINE>kind = BASELINE
compiler = baseline
address = 000003F7CA6C53D1

Instructions (size = 628)
00007FF5BD643A40     0  bb28000000           movl rbx,0000000000000028
00007FF5BD643A45     5  49bc71b5e7be23010000 REX.W movq r12,00000123BEE7B571    ;; object: 0x0123bee7b571 <BytecodeArray[76]>
00007FF5BD643A4F     f  e84049e37f           call 00007FF63D478394  (BaselineOutOfLinePrologue)    ;; near builtin entry
00007FF5BD643A54    14  50                   push rax
00007FF5BD643A55    15  50                   push rax
00007FF5BD643A56    16  50                   push rax
00007FF5BD643A57    17  4c8b45f8             REX.W movq r8,[rbp-0x8]
00007FF5BD643A5B    1b  498b80ff000000       REX.W movq rax,[r8+0xff]
00007FF5BD643A62    22  493b8598010000       REX.W cmpq rax,[r13+0x198] (root (the_hole_value))
00007FF5BD643A69    29  0f8525000000         jnz 00007FF5BD643A94  <+0x54>
00007FF5BD643A6F    2f  488b75f8             REX.W movq rsi,[rbp-0x8]
00007FF5BD643A73    33  49ba7924e4be23010000 REX.W movq r10,00000123BEE42479    ;; object: 0x0123bee42479 <String[6]: #selfId>
00007FF5BD643A7D    3d  4152                 push r10
00007FF5BD643A7F    3f  b801000000           movl rax,0000000000000001
00007FF5BD643A84    44  48bb5038f83cf67f0000 REX.W movq rbx,00007FF63CF83850
00007FF5BD643A8E    4e  e80128ec7f           call 00007FF63D506294  (CEntry_Return1_ArgvOnStack_NoBuiltinExit)    ;; near builtin entry
00007FF5BD643A93    53  cc                   int3l
00007FF5BD643A94    54  488b5518             REX.W movq rdx,[rbp+0x18]
00007FF5BD643A98    58  33db                 xorl rbx,rbx
00007FF5BD643A9A    5a  e8f5b7e97f           call 00007FF63D4DF294  (StrictEqual_Baseline)    ;; near builtin entry
00007FF5BD643A9F    5f  493b85b0010000       REX.W cmpq rax,[r13+0x1b0] (root (false_value))
00007FF5BD643AA6    66  7512                 jnz 00007FF5BD643ABA  <+0x7a>
00007FF5BD643AA8    68  4c8b45f0             REX.W movq r8,[rbp-0x10]
00007FF5BD643AAC    6c  4d8b4027             REX.W movq r8,[r8+0x27]
00007FF5BD643AB0    70  4183400f05           addl [r8+0xf],0x5
00007FF5BD643AB5    75  e94b000000           jmp 00007FF5BD643B05  <+0xc5>
00007FF5BD643ABA    7a  4c8b45f8             REX.W movq r8,[rbp-0x8]
00007FF5BD643ABE    7e  498b804f010000       REX.W movq rax,[r8+0x14f]
00007FF5BD643AC5    85  493b8598010000       REX.W cmpq rax,[r13+0x198] (root (the_hole_value))
00007FF5BD643ACC    8c  0f8522000000         jnz 00007FF5BD643AF4  <+0xb4>
00007FF5BD643AD2    92  488b75f8             REX.W movq rsi,[rbp-0x8]
00007FF5BD643AD6    96  49bad125e4be23010000 REX.W movq r10,00000123BEE425D1    ;; object: 0x0123bee425d1 <String[13]: #loaderExports>
00007FF5BD643AE0    a0  4152                 push r10
00007FF5BD643AE2    a2  b801000000           movl rax,0000000000000001
00007FF5BD643AE7    a7  488b1d98ffffff       REX.W movq rbx,[rip+0xffffff98]
00007FF5BD643AEE    ae  e8a127ec7f           call 00007FF63D506294  (CEntry_Return1_ArgvOnStack_NoBuiltinExit)    ;; near builtin entry
00007FF5BD643AF3    b3  cc                   int3l
00007FF5BD643AF4    b4  bb02000000           movl rbx,0000000000000002
00007FF5BD643AF9    b9  48c7c1f2ffffff       REX.W movq rcx,0xfffffff2
00007FF5BD643B00    c0  e90f4be37f           jmp 00007FF63D478614  (BaselineLeaveFrame)    ;; near builtin entry
00007FF5BD643B05    c5  4c8b45f8             REX.W movq r8,[rbp-0x8]
00007FF5BD643B09    c9  498b8047010000       REX.W movq rax,[r8+0x147]
00007FF5BD643B10    d0  493b8598010000       REX.W cmpq rax,[r13+0x198] (root (the_hole_value))
00007FF5BD643B17    d7  0f8522000000         jnz 00007FF5BD643B3F  <+0xff>
00007FF5BD643B1D    dd  488b75f8             REX.W movq rsi,[rbp-0x8]
00007FF5BD643B21    e1  49bab125e4be23010000 REX.W movq r10,00000123BEE425B1    ;; object: 0x0123bee425b1 <String[13]: #BuiltinModule>
00007FF5BD643B2B    eb  4152                 push r10
00007FF5BD643B2D    ed  b801000000           movl rax,0000000000000001
00007FF5BD643B32    f2  488b1d4dffffff       REX.W movq rbx,[rip+0xffffff4d]
00007FF5BD643B39    f9  e85627ec7f           call 00007FF63D506294  (CEntry_Return1_ArgvOnStack_NoBuiltinExit)    ;; near builtin entry
00007FF5BD643B3E    fe  cc                   int3l
00007FF5BD643B3F    ff  488945c0             REX.W movq [rbp-0x40],rax
00007FF5BD643B43   103  488b55c0             REX.W movq rdx,[rbp-0x40]
00007FF5BD643B47   107  48b99929e4be23010000 REX.W movq rcx,00000123BEE42999    ;; object: 0x0123bee42999 <String[3]: #map>
00007FF5BD643B51   111  b802000000           movl rax,0000000000000002
00007FF5BD643B56   116  e83938e77f           call 00007FF63D4B7394  (LoadICBaseline)    ;; near builtin entry
00007FF5BD643B5B   11b  488945c0             REX.W movq [rbp-0x40],rax
00007FF5BD643B5F   11f  488b55c0             REX.W movq rdx,[rbp-0x40]
00007FF5BD643B63   123  48b9d163f06366030000 REX.W movq rcx,0000036663F063D1    ;; object: 0x036663f063d1 <String[3]: #get>
00007FF5BD643B6D   12d  b806000000           movl rax,0000000000000006
00007FF5BD643B72   132  e81d38e77f           call 00007FF63D4B7394  (LoadICBaseline)    ;; near builtin entry
00007FF5BD643B77   137  488945c8             REX.W movq [rbp-0x38],rax
00007FF5BD643B7B   13b  488b45c8             REX.W movq rax,[rbp-0x38]
00007FF5BD643B7F   13f  bb02050000           movl rbx,0000000000000502
00007FF5BD643B84   144  ff7518               push [rbp+0x18]
00007FF5BD643B87   147  ff75c0               push [rbp-0x40]
00007FF5BD643B8A   14a  e845a7e27f           call 00007FF63D46E2D4  (Call_ReceiverIsNotNullOrUndefined_Baseline_Compact)    ;; near builtin entry
00007FF5BD643B8F   14f  488945d0             REX.W movq [rbp-0x30],rax
00007FF5BD643B93   153  e8bc79f07f           call 00007FF63D54B554  (ToBooleanForBaselineJump)    ;; near builtin entry
00007FF5BD643B98   158  4885d2               REX.W testq rdx,rdx
00007FF5BD643B9B   15b  7412                 jz 00007FF5BD643BAF  <+0x16f>
00007FF5BD643B9D   15d  4c8b45f0             REX.W movq r8,[rbp-0x10]
00007FF5BD643BA1   161  4d8b4027             REX.W movq r8,[r8+0x27]
00007FF5BD643BA5   165  4183400f1d           addl [r8+0xf],0x1d
00007FF5BD643BAA   16a  e9c5000000           jmp 00007FF5BD643C74  <+0x234>
00007FF5BD643BAF   16f  4c8b45f8             REX.W movq r8,[rbp-0x8]
00007FF5BD643BB3   173  498b80bf000000       REX.W movq rax,[r8+0xbf]
00007FF5BD643BBA   17a  493b8598010000       REX.W cmpq rax,[r13+0x198] (root (the_hole_value))
00007FF5BD643BC1   181  0f8522000000         jnz 00007FF5BD643BE9  <+0x1a9>
00007FF5BD643BC7   187  488b75f8             REX.W movq rsi,[rbp-0x8]
00007FF5BD643BCB   18b  49baa975f06366030000 REX.W movq r10,0000036663F075A9    ;; object: 0x036663f075a9 <String[9]: #TypeError>
00007FF5BD643BD5   195  4152                 push r10
00007FF5BD643BD7   197  b801000000           movl rax,0000000000000001
00007FF5BD643BDC   19c  488b1da3feffff       REX.W movq rbx,[rip+0xfffffea3]
00007FF5BD643BE3   1a3  e8ac26ec7f           call 00007FF63D506294  (CEntry_Return1_ArgvOnStack_NoBuiltinExit)    ;; near builtin entry
00007FF5BD643BE8   1a8  cc                   int3l
00007FF5BD643BE9   1a9  488945c8             REX.W movq [rbp-0x38],rax
00007FF5BD643BED   1ad  48b8b129e4be23010000 REX.W movq rax,00000123BEE429B1    ;; object: 0x0123bee429b1 <String[25]: #Missing internal module '>
00007FF5BD643BF7   1b7  488945c0             REX.W movq [rbp-0x40],rax
00007FF5BD643BFB   1bb  488b4518             REX.W movq rax,[rbp+0x18]
00007FF5BD643BFF   1bf  488b75f8             REX.W movq rsi,[rbp-0x8]
00007FF5BD643C03   1c3  e8cc24f07f           call 00007FF63D5460D4  (ToString)    ;; near builtin entry
00007FF5BD643C08   1c8  488b55c0             REX.W movq rdx,[rbp-0x40]
00007FF5BD643C0C   1cc  bb07000000           movl rbx,0000000000000007
00007FF5BD643C11   1d1  e8fe0fe97f           call 00007FF63D4D4C14  (Add_Baseline)    ;; near builtin entry
00007FF5BD643C16   1d6  488945c0             REX.W movq [rbp-0x40],rax
00007FF5BD643C1A   1da  48b82931f06366030000 REX.W movq rax,0000036663F03129    ;; object: 0x036663f03129 <String[1]: #'>
00007FF5BD643C24   1e4  488b55c0             REX.W movq rdx,[rbp-0x40]
00007FF5BD643C28   1e8  bb07000000           movl rbx,0000000000000007
00007FF5BD643C2D   1ed  e8e20fe97f           call 00007FF63D4D4C14  (Add_Baseline)    ;; near builtin entry
00007FF5BD643C32   1f2  488945c0             REX.W movq [rbp-0x40],rax
00007FF5BD643C36   1f6  488b45c8             REX.W movq rax,[rbp-0x38]
00007FF5BD643C3A   1fa  488b7dc8             REX.W movq rdi,[rbp-0x38]
00007FF5BD643C3E   1fe  488bd0               REX.W movq rdx,rax
00007FF5BD643C41   201  b802000000           movl rax,0000000000000002
00007FF5BD643C46   206  bb08000000           movl rbx,0000000000000008
00007FF5BD643C4B   20b  ff75c0               push [rbp-0x40]
00007FF5BD643C4E   20e  41ffb590010000       push [r13+0x190] (root (undefined_value))
00007FF5BD643C55   215  e8ba09e37f           call 00007FF63D474614  (Construct_Baseline)    ;; near builtin entry
00007FF5BD643C5A   21a  488b75f8             REX.W movq rsi,[rbp-0x8]
00007FF5BD643C5E   21e  50                   push rax
00007FF5BD643C5F   21f  b801000000           movl rax,0000000000000001
00007FF5BD643C64   224  48bbd037f83cf67f0000 REX.W movq rbx,00007FF63CF837D0
00007FF5BD643C6E   22e  e82126ec7f           call 00007FF63D506294  (CEntry_Return1_ArgvOnStack_NoBuiltinExit)    ;; near builtin entry
00007FF5BD643C73   233  cc                   int3l
00007FF5BD643C74   234  488b55d0             REX.W movq rdx,[rbp-0x30]
00007FF5BD643C78   238  48b97129e4be23010000 REX.W movq rcx,00000123BEE42971    ;; object: 0x0123bee42971 <String[24]: #compileForInternalLoader>
00007FF5BD643C82   242  b814000000           movl rax,0000000000000014
00007FF5BD643C87   247  e80837e77f           call 00007FF63D4B7394  (LoadICBaseline)    ;; near builtin entry
00007FF5BD643C8C   24c  488945c8             REX.W movq [rbp-0x38],rax
00007FF5BD643C90   250  488b45c8             REX.W movq rax,[rbp-0x38]
00007FF5BD643C94   254  bb010c0000           movl rbx,0000000000000C01
00007FF5BD643C99   259  ff75d0               push [rbp-0x30]
00007FF5BD643C9C   25c  e833a6e27f           call 00007FF63D46E2D4  (Call_ReceiverIsNotNullOrUndefined_Baseline_Compact)    ;; near builtin entry
00007FF5BD643CA1   261  bb02000000           movl rbx,0000000000000002
00007FF5BD643CA6   266  48c7c1b4ffffff       REX.W movq rcx,0xffffffb4
00007FF5BD643CAD   26d  e96249e37f           jmp 00007FF63D478614  (BaselineLeaveFrame)    ;; near builtin entry
00007FF5BD643CB2   272  cc                   int3l
00007FF5BD643CB3   273  cc                   int3l


RelocInfo (size = 48)
00007FF5BD643A47  full embedded object  (0x0123bee7b571 <BytecodeArray[76]>)
00007FF5BD643A50  near builtin entry
00007FF5BD643A75  full embedded object  (0x0123bee42479 <String[6]: #selfId>)
00007FF5BD643A8F  near builtin entry
00007FF5BD643A9B  near builtin entry
00007FF5BD643AD8  full embedded object  (0x0123bee425d1 <String[13]: #loaderExports>)
00007FF5BD643AEF  near builtin entry
00007FF5BD643B01  near builtin entry
00007FF5BD643B23  full embedded object  (0x0123bee425b1 <String[13]: #BuiltinModule>)
00007FF5BD643B3A  near builtin entry
00007FF5BD643B49  full embedded object  (0x0123bee42999 <String[3]: #map>)
00007FF5BD643B57  near builtin entry
00007FF5BD643B65  full embedded object  (0x036663f063d1 <String[3]: #get>)
00007FF5BD643B73  near builtin entry
00007FF5BD643B8B  near builtin entry
00007FF5BD643B94  near builtin entry
00007FF5BD643BCD  full embedded object  (0x036663f075a9 <String[9]: #TypeError>)
00007FF5BD643BE4  near builtin entry
00007FF5BD643BEF  full embedded object  (0x0123bee429b1 <String[25]: #Missing internal module '>)
00007FF5BD643C04  near builtin entry
00007FF5BD643C12  near builtin entry
00007FF5BD643C1C  full embedded object  (0x036663f03129 <String[1]: #'>)
00007FF5BD643C2E  near builtin entry
00007FF5BD643C56  near builtin entry
00007FF5BD643C6F  near builtin entry
00007FF5BD643C7A  full embedded object  (0x0123bee42971 <String[24]: #compileForInternalLoader>)
00007FF5BD643C88  near builtin entry
00007FF5BD643C9D  near builtin entry
00007FF5BD643CAE  near builtin entry

000003F7CA6C5491: [Code] in OldSpace
 - map: 0x036663f01019 <Map[88](CODE_TYPE)>
 - kind: BASELINE
 - instruction_stream: 0x7ff5bd643cf1 <InstructionStream BASELINE>
 - code_entry_point: 00007FF5BD643D00
 - kind_specific_flags: 0
00007FF5BD643CF1: [InstructionStream]
 - map: 0x036663f00951 <Map(INSTRUCTION_STREAM_TYPE)>
 - code: 0x03f7ca6c5491 <Code BASELINE>kind = BASELINE
compiler = baseline
address = 000003F7CA6C5491

Instructions (size = 1228)
00007FF5BD643D00     0  bba0000000           movl rbx,00000000000000A0
00007FF5BD643D05     5  49bcf9b2e7be23010000 REX.W movq r12,00000123BEE7B2F9    ;; object: 0x0123bee7b2f9 <BytecodeArray[175]>
00007FF5BD643D0F     f  e88046e37f           call 00007FF63D478394  (BaselineOutOfLinePrologue)    ;; near builtin entry
00007FF5BD643D14    14  50                   push rax
00007FF5BD643D15    15  50                   push rax
00007FF5BD643D16    16  50                   push rax
00007FF5BD643D17    17  50                   push rax
00007FF5BD643D18    18  50                   push rax
00007FF5BD643D19    19  50                   push rax
00007FF5BD643D1A    1a  50                   push rax
00007FF5BD643D1B    1b  50                   push rax
00007FF5BD643D1C    1c  50                   push rax
00007FF5BD643D1D    1d  50                   push rax
00007FF5BD643D1E    1e  50                   push rax
00007FF5BD643D1F    1f  50                   push rax
00007FF5BD643D20    20  50                   push rax
00007FF5BD643D21    21  488b5510             REX.W movq rdx,[rbp+0x10]
00007FF5BD643D25    25  48b9d126e4be23010000 REX.W movq rcx,00000123BEE426D1    ;; object: 0x0123bee426d1 <String[6]: #loaded>
00007FF5BD643D2F    2f  33c0                 xorl rax,rax
00007FF5BD643D31    31  e85e36e77f           call 00007FF63D4B7394  (LoadICBaseline)    ;; near builtin entry
00007FF5BD643D36    36  e81978f07f           call 00007FF63D54B554  (ToBooleanForBaselineJump)    ;; near builtin entry
00007FF5BD643D3B    3b  4885d2               REX.W testq rdx,rdx
00007FF5BD643D3E    3e  7412                 jz 00007FF5BD643D52  <+0x52>
00007FF5BD643D40    40  4c8b45f0             REX.W movq r8,[rbp-0x10]
00007FF5BD643D44    44  4d8b4027             REX.W movq r8,[r8+0x27]
00007FF5BD643D48    48  4183400f06           addl [r8+0xf],0x6
00007FF5BD643D4D    4d  e934000000           jmp 00007FF5BD643D86  <+0x86>
00007FF5BD643D52    52  488b5510             REX.W movq rdx,[rbp+0x10]
00007FF5BD643D56    56  48b9e926e4be23010000 REX.W movq rcx,00000123BEE426E9    ;; object: 0x0123bee426e9 <String[7]: #loading>
00007FF5BD643D60    60  b804000000           movl rax,0000000000000004
00007FF5BD643D65    65  e82a36e77f           call 00007FF63D4B7394  (LoadICBaseline)    ;; near builtin entry
00007FF5BD643D6A    6a  e8e577f07f           call 00007FF63D54B554  (ToBooleanForBaselineJump)    ;; near builtin entry
00007FF5BD643D6F    6f  4885d2               REX.W testq rdx,rdx
00007FF5BD643D72    72  7512                 jnz 00007FF5BD643D86  <+0x86>
00007FF5BD643D74    74  4c8b45f0             REX.W movq r8,[rbp-0x10]
00007FF5BD643D78    78  4d8b4027             REX.W movq r8,[r8+0x27]
00007FF5BD643D7C    7c  4183400f05           addl [r8+0xf],0x5
00007FF5BD643D81    81  e929000000           jmp 00007FF5BD643DAF  <+0xaf>
00007FF5BD643D86    86  488b5510             REX.W movq rdx,[rbp+0x10]
00007FF5BD643D8A    8a  48b9b926e4be23010000 REX.W movq rcx,00000123BEE426B9    ;; object: 0x0123bee426b9 <String[7]: #exports>
00007FF5BD643D94    94  b808000000           movl rax,0000000000000008
00007FF5BD643D99    99  e8f635e77f           call 00007FF63D4B7394  (LoadICBaseline)    ;; near builtin entry
00007FF5BD643D9E    9e  bb01000000           movl rbx,0000000000000001
00007FF5BD643DA3    a3  48c7c1efffffff       REX.W movq rcx,0xffffffef
00007FF5BD643DAA    aa  e96548e37f           jmp 00007FF63D478614  (BaselineLeaveFrame)    ;; near builtin entry
00007FF5BD643DAF    af  488b5510             REX.W movq rdx,[rbp+0x10]
00007FF5BD643DB3    b3  48b99165f06366030000 REX.W movq rcx,0000036663F06591    ;; object: 0x036663f06591 <String[2]: #id>
00007FF5BD643DBD    bd  b80c000000           movl rax,000000000000000C
00007FF5BD643DC2    c2  e8cd35e77f           call 00007FF63D4B7394  (LoadICBaseline)    ;; near builtin entry
00007FF5BD643DC7    c7  488945d0             REX.W movq [rbp-0x30],rax
00007FF5BD643DCB    cb  498b85a8010000       REX.W movq rax,[r13+0x1a8] (root (true_value))
00007FF5BD643DD2    d2  488b5510             REX.W movq rdx,[rbp+0x10]
00007FF5BD643DD6    d6  48b9e926e4be23010000 REX.W movq rcx,00000123BEE426E9    ;; object: 0x0123bee426e9 <String[7]: #loading>
00007FF5BD643DE0    e0  bf10000000           movl rdi,0000000000000010
00007FF5BD643DE5    e5  e86a1ce87f           call 00007FF63D4C5A54  (StoreICBaseline)    ;; near builtin entry
00007FF5BD643DEA    ea  4c8b45f8             REX.W movq r8,[rbp-0x8]
00007FF5BD643DEE    ee  4c8945a8             REX.W movq [rbp-0x58],r8
00007FF5BD643DF2    f2  4c8b45f8             REX.W movq r8,[rbp-0x8]
00007FF5BD643DF6    f6  4d8b4017             REX.W movq r8,[r8+0x17]
00007FF5BD643DFA    fa  498b80af000000       REX.W movq rax,[r8+0xaf]
00007FF5BD643E01   101  493b8598010000       REX.W cmpq rax,[r13+0x198] (root (the_hole_value))
00007FF5BD643E08   108  0f8525000000         jnz 00007FF5BD643E33  <+0x133>
00007FF5BD643E0E   10e  488b75f8             REX.W movq rsi,[rbp-0x8]
00007FF5BD643E12   112  49ba1923e4be23010000 REX.W movq r10,00000123BEE42319    ;; object: 0x0123bee42319 <String[25]: #StringPrototypeStartsWith>
00007FF5BD643E1C   11c  4152                 push r10
00007FF5BD643E1E   11e  b801000000           movl rax,0000000000000001
00007FF5BD643E23   123  48bb5038f83cf67f0000 REX.W movq rbx,00007FF63CF83850
00007FF5BD643E2D   12d  e86224ec7f           call 00007FF63D506294  (CEntry_Return1_ArgvOnStack_NoBuiltinExit)    ;; near builtin entry
00007FF5BD643E32   132  cc                   int3l
00007FF5BD643E33   133  488945a0             REX.W movq [rbp-0x60],rax
00007FF5BD643E37   137  488b5510             REX.W movq rdx,[rbp+0x10]
00007FF5BD643E3B   13b  48b99165f06366030000 REX.W movq rcx,0000036663F06591    ;; object: 0x036663f06591 <String[2]: #id>
00007FF5BD643E45   145  b814000000           movl rax,0000000000000014
00007FF5BD643E4A   14a  e84535e77f           call 00007FF63D4B7394  (LoadICBaseline)    ;; near builtin entry
00007FF5BD643E4F   14f  48894598             REX.W movq [rbp-0x68],rax
00007FF5BD643E53   153  48b83129e4be23010000 REX.W movq rax,00000123BEE42931    ;; object: 0x0123bee42931 <String[14]: #internal/deps/>
00007FF5BD643E5D   15d  48894590             REX.W movq [rbp-0x70],rax
00007FF5BD643E61   161  488b45a0             REX.W movq rax,[rbp-0x60]
00007FF5BD643E65   165  bb030c0000           movl rbx,0000000000000C03
00007FF5BD643E6A   16a  ff7590               push [rbp-0x70]
00007FF5BD643E6D   16d  ff7598               push [rbp-0x68]
00007FF5BD643E70   170  41ffb590010000       push [r13+0x190] (root (undefined_value))
00007FF5BD643E77   177  e8589ce27f           call 00007FF63D46DAD4  (Call_ReceiverIsNullOrUndefined_Baseline_Compact)    ;; near builtin entry
00007FF5BD643E7C   17c  e8d376f07f           call 00007FF63D54B554  (ToBooleanForBaselineJump)    ;; near builtin entry
00007FF5BD643E81   181  4885d2               REX.W testq rdx,rdx
00007FF5BD643E84   184  7512                 jnz 00007FF5BD643E98  <+0x198>
00007FF5BD643E86   186  4c8b45f0             REX.W movq r8,[rbp-0x10]
00007FF5BD643E8A   18a  4d8b4027             REX.W movq r8,[r8+0x27]
00007FF5BD643E8E   18e  4183400f06           addl [r8+0xf],0x6
00007FF5BD643E93   193  e921000000           jmp 00007FF5BD643EB9  <+0x1b9>
00007FF5BD643E98   198  4c8b45f8             REX.W movq r8,[rbp-0x8]
00007FF5BD643E9C   19c  4d8b4017             REX.W movq r8,[r8+0x17]
00007FF5BD643EA0   1a0  498b805f010000       REX.W movq rax,[r8+0x15f]
00007FF5BD643EA7   1a7  4c8b45f0             REX.W movq r8,[rbp-0x10]
00007FF5BD643EAB   1ab  4d8b4027             REX.W movq r8,[r8+0x27]
00007FF5BD643EAF   1af  4183400f04           addl [r8+0xf],0x4
00007FF5BD643EB4   1b4  e90f000000           jmp 00007FF5BD643EC8  <+0x1c8>
00007FF5BD643EB9   1b9  4c8b45f8             REX.W movq r8,[rbp-0x8]
00007FF5BD643EBD   1bd  4d8b4017             REX.W movq r8,[r8+0x17]
00007FF5BD643EC1   1c1  498b8057010000       REX.W movq rax,[r8+0x157]
00007FF5BD643EC8   1c8  488945c8             REX.W movq [rbp-0x38],rax
00007FF5BD643ECC   1cc  4c8b45f8             REX.W movq r8,[rbp-0x8]
00007FF5BD643ED0   1d0  4d8b4017             REX.W movq r8,[r8+0x17]
00007FF5BD643ED4   1d4  498b800f010000       REX.W movq rax,[r8+0x10f]
00007FF5BD643EDB   1db  493b8598010000       REX.W cmpq rax,[r13+0x198] (root (the_hole_value))
00007FF5BD643EE2   1e2  0f8522000000         jnz 00007FF5BD643F0A  <+0x20a>
00007FF5BD643EE8   1e8  488b75f8             REX.W movq rsi,[rbp-0x8]
00007FF5BD643EEC   1ec  49bab124e4be23010000 REX.W movq r10,00000123BEE424B1    ;; object: 0x0123bee424b1 <String[15]: #compileFunction>
00007FF5BD643EF6   1f6  4152                 push r10
00007FF5BD643EF8   1f8  b801000000           movl rax,0000000000000001
00007FF5BD643EFD   1fd  488b1d21ffffff       REX.W movq rbx,[rip+0xffffff21]
00007FF5BD643F04   204  e88b23ec7f           call 00007FF63D506294  (CEntry_Return1_ArgvOnStack_NoBuiltinExit)    ;; near builtin entry
00007FF5BD643F09   209  cc                   int3l
00007FF5BD643F0A   20a  488945a0             REX.W movq [rbp-0x60],rax
00007FF5BD643F0E   20e  488b45a0             REX.W movq rax,[rbp-0x60]
00007FF5BD643F12   212  bb020e0000           movl rbx,0000000000000E02
00007FF5BD643F17   217  ff75d0               push [rbp-0x30]
00007FF5BD643F1A   21a  41ffb590010000       push [r13+0x190] (root (undefined_value))
00007FF5BD643F21   221  e8ae9be27f           call 00007FF63D46DAD4  (Call_ReceiverIsNullOrUndefined_Baseline_Compact)    ;; near builtin entry
00007FF5BD643F26   226  488945c0             REX.W movq [rbp-0x40],rax
00007FF5BD643F2A   22a  488b5510             REX.W movq rdx,[rbp+0x10]
00007FF5BD643F2E   22e  48b9b926e4be23010000 REX.W movq rcx,00000123BEE426B9    ;; object: 0x0123bee426b9 <String[7]: #exports>
00007FF5BD643F38   238  b820000000           movl rax,0000000000000020
00007FF5BD643F3D   23d  e85234e77f           call 00007FF63D4B7394  (LoadICBaseline)    ;; near builtin entry
00007FF5BD643F42   242  48894598             REX.W movq [rbp-0x68],rax
00007FF5BD643F46   246  4c8b45f8             REX.W movq r8,[rbp-0x8]
00007FF5BD643F4A   24a  4d8b4017             REX.W movq r8,[r8+0x17]
00007FF5BD643F4E   24e  498b4037             REX.W movq rax,[r8+0x37]
00007FF5BD643F52   252  48894580             REX.W movq [rbp-0x80],rax
00007FF5BD643F56   256  4c8b45f8             REX.W movq r8,[rbp-0x8]
00007FF5BD643F5A   25a  4d8b4017             REX.W movq r8,[r8+0x17]
00007FF5BD643F5E   25e  498b80f7000000       REX.W movq rax,[r8+0xf7]
00007FF5BD643F65   265  493b8598010000       REX.W cmpq rax,[r13+0x198] (root (the_hole_value))
00007FF5BD643F6C   26c  0f8522000000         jnz 00007FF5BD643F94  <+0x294>
00007FF5BD643F72   272  488b75f8             REX.W movq rsi,[rbp-0x8]
00007FF5BD643F76   276  49ba5924e4be23010000 REX.W movq r10,00000123BEE42459    ;; object: 0x0123bee42459 <String[15]: #internalBinding>
00007FF5BD643F80   280  4152                 push r10
00007FF5BD643F82   282  b801000000           movl rax,0000000000000001
00007FF5BD643F87   287  488b1d97feffff       REX.W movq rbx,[rip+0xfffffe97]
00007FF5BD643F8E   28e  e80123ec7f           call 00007FF63D506294  (CEntry_Return1_ArgvOnStack_NoBuiltinExit)    ;; near builtin entry
00007FF5BD643F93   293  cc                   int3l
00007FF5BD643F94   294  48898578ffffff       REX.W movq [rbp-0x88],rax
00007FF5BD643F9B   29b  4c8b45f8             REX.W movq r8,[rbp-0x8]
00007FF5BD643F9F   29f  4d8b4017             REX.W movq r8,[r8+0x17]
00007FF5BD643FA3   2a3  498b401f             REX.W movq rax,[r8+0x1f]
00007FF5BD643FA7   2a7  48898570ffffff       REX.W movq [rbp-0x90],rax
00007FF5BD643FAE   2ae  4c8b45c8             REX.W movq r8,[rbp-0x38]
00007FF5BD643FB2   2b2  4c894590             REX.W movq [rbp-0x70],r8
00007FF5BD643FB6   2b6  4c8b4510             REX.W movq r8,[rbp+0x10]
00007FF5BD643FBA   2ba  4c894588             REX.W movq [rbp-0x78],r8
00007FF5BD643FBE   2be  488b45c0             REX.W movq rax,[rbp-0x40]
00007FF5BD643FC2   2c2  bb07120000           movl rbx,0000000000001207
00007FF5BD643FC7   2c7  ffb570ffffff         push [rbp-0x90]
00007FF5BD643FCD   2cd  ffb578ffffff         push [rbp-0x88]
00007FF5BD643FD3   2d3  ff7580               push [rbp-0x80]
00007FF5BD643FD6   2d6  ff7588               push [rbp-0x78]
00007FF5BD643FD9   2d9  ff7590               push [rbp-0x70]
00007FF5BD643FDC   2dc  ff7598               push [rbp-0x68]
00007FF5BD643FDF   2df  41ffb590010000       push [r13+0x190] (root (undefined_value))
00007FF5BD643FE6   2e6  e8e99ae27f           call 00007FF63D46DAD4  (Call_ReceiverIsNullOrUndefined_Baseline_Compact)    ;; near builtin entry
00007FF5BD643FEB   2eb  498b85a8010000       REX.W movq rax,[r13+0x1a8] (root (true_value))
00007FF5BD643FF2   2f2  488b5510             REX.W movq rdx,[rbp+0x10]
00007FF5BD643FF6   2f6  48b9d126e4be23010000 REX.W movq rcx,00000123BEE426D1    ;; object: 0x0123bee426d1 <String[6]: #loaded>
00007FF5BD644000   300  bf28000000           movl rdi,0000000000000028
00007FF5BD644005   305  e84a1ae87f           call 00007FF63D4C5A54  (StoreICBaseline)    ;; near builtin entry
00007FF5BD64400A   30a  48b800000000ffffffff REX.W movq rax,FFFFFFFF00000000
00007FF5BD644014   314  488945b0             REX.W movq [rbp-0x50],rax
00007FF5BD644018   318  488945b8             REX.W movq [rbp-0x48],rax
00007FF5BD64401C   31c  4c8b45f0             REX.W movq r8,[rbp-0x10]
00007FF5BD644020   320  4d8b4027             REX.W movq r8,[r8+0x27]
00007FF5BD644024   324  4183400f03           addl [r8+0xf],0x3
00007FF5BD644029   329  e90a000000           jmp 00007FF5BD644038  <+0x338>
00007FF5BD64402E   32e  488945b0             REX.W movq [rbp-0x50],rax
00007FF5BD644032   332  33c0                 xorl rax,rax
00007FF5BD644034   334  488945b8             REX.W movq [rbp-0x48],rax
00007FF5BD644038   338  498b8598010000       REX.W movq rax,[r13+0x198] (root (the_hole_value))
00007FF5BD64403F   33f  49b8e801154995020000 REX.W movq r8,00000295491501E8
00007FF5BD644049   349  4c8bc8               REX.W movq r9,rax
00007FF5BD64404C   34c  498b00               REX.W movq rax,[r8]
00007FF5BD64404F   34f  4d8908               REX.W movq [r8],r9
00007FF5BD644052   352  488945a8             REX.W movq [rbp-0x58],rax
00007FF5BD644056   356  498b85b0010000       REX.W movq rax,[r13+0x1b0] (root (false_value))
00007FF5BD64405D   35d  488b5510             REX.W movq rdx,[rbp+0x10]
00007FF5BD644061   361  48b9e926e4be23010000 REX.W movq rcx,00000123BEE426E9    ;; object: 0x0123bee426e9 <String[7]: #loading>
00007FF5BD64406B   36b  bf2c000000           movl rdi,000000000000002C
00007FF5BD644070   370  e8df19e87f           call 00007FF63D4C5A54  (StoreICBaseline)    ;; near builtin entry
00007FF5BD644075   375  488b45a8             REX.W movq rax,[rbp-0x58]
00007FF5BD644079   379  4c8b05c1ffffff       REX.W movq r8,[rip+0xffffffc1]
00007FF5BD644080   380  4c8bc8               REX.W movq r9,rax
00007FF5BD644083   383  498b00               REX.W movq rax,[r8]
00007FF5BD644086   386  4d8908               REX.W movq [r8],r9
00007FF5BD644089   389  33c0                 xorl rax,rax
00007FF5BD64408B   38b  483945b8             REX.W cmpq [rbp-0x48],rax
00007FF5BD64408F   38f  7409                 jz 00007FF5BD64409A  <+0x39a>
00007FF5BD644091   391  498b85b0010000       REX.W movq rax,[r13+0x1b0] (root (false_value))
00007FF5BD644098   398  eb07                 jmp 00007FF5BD6440A1  <+0x3a1>
00007FF5BD64409A   39a  498b85a8010000       REX.W movq rax,[r13+0x1a8] (root (true_value))
00007FF5BD6440A1   3a1  493b85b0010000       REX.W cmpq rax,[r13+0x1b0] (root (false_value))
00007FF5BD6440A8   3a8  7512                 jnz 00007FF5BD6440BC  <+0x3bc>
00007FF5BD6440AA   3aa  4c8b45f0             REX.W movq r8,[rbp-0x10]
00007FF5BD6440AE   3ae  4d8b4027             REX.W movq r8,[r8+0x27]
00007FF5BD6440B2   3b2  4183400f03           addl [r8+0xf],0x3
00007FF5BD6440B7   3b7  e91e000000           jmp 00007FF5BD6440DA  <+0x3da>
00007FF5BD6440BC   3bc  488b45b0             REX.W movq rax,[rbp-0x50]
00007FF5BD6440C0   3c0  488b75f8             REX.W movq rsi,[rbp-0x8]
00007FF5BD6440C4   3c4  50                   push rax
00007FF5BD6440C5   3c5  b801000000           movl rax,0000000000000001
00007FF5BD6440CA   3ca  48bb9031f83cf67f0000 REX.W movq rbx,00007FF63CF83190
00007FF5BD6440D4   3d4  e8bb21ec7f           call 00007FF63D506294  (CEntry_Return1_ArgvOnStack_NoBuiltinExit)    ;; near builtin entry
00007FF5BD6440D9   3d9  cc                   int3l
00007FF5BD6440DA   3da  4c8b45f8             REX.W movq r8,[rbp-0x8]
00007FF5BD6440DE   3de  4d8b4017             REX.W movq r8,[r8+0x17]
00007FF5BD6440E2   3e2  498b405f             REX.W movq rax,[r8+0x5f]
00007FF5BD6440E6   3e6  493b8598010000       REX.W cmpq rax,[r13+0x198] (root (the_hole_value))
00007FF5BD6440ED   3ed  0f8522000000         jnz 00007FF5BD644115  <+0x415>
00007FF5BD6440F3   3f3  488b75f8             REX.W movq rsi,[rbp-0x8]
00007FF5BD6440F7   3f7  49ba7922e4be23010000 REX.W movq r10,00000123BEE42279    ;; object: 0x0123bee42279 <String[18]: #ArrayPrototypePush>
00007FF5BD644101   401  4152                 push r10
00007FF5BD644103   403  b801000000           movl rax,0000000000000001
00007FF5BD644108   408  488b1d16fdffff       REX.W movq rbx,[rip+0xfffffd16]
00007FF5BD64410F   40f  e88021ec7f           call 00007FF63D506294  (CEntry_Return1_ArgvOnStack_NoBuiltinExit)    ;; near builtin entry
00007FF5BD644114   414  cc                   int3l
00007FF5BD644115   415  488945b8             REX.W movq [rbp-0x48],rax
00007FF5BD644119   419  4c8b45f8             REX.W movq r8,[rbp-0x8]
00007FF5BD64411D   41d  4d8b4017             REX.W movq r8,[r8+0x17]
00007FF5BD644121   421  498b80c7000000       REX.W movq rax,[r8+0xc7]
00007FF5BD644128   428  493b8598010000       REX.W cmpq rax,[r13+0x198] (root (the_hole_value))
00007FF5BD64412F   42f  0f8522000000         jnz 00007FF5BD644157  <+0x457>
00007FF5BD644135   435  488b75f8             REX.W movq rsi,[rbp-0x8]
00007FF5BD644139   439  49ba7123e4be23010000 REX.W movq r10,00000123BEE42371    ;; object: 0x0123bee42371 <String[14]: #moduleLoadList>
00007FF5BD644143   443  4152                 push r10
00007FF5BD644145   445  b801000000           movl rax,0000000000000001
00007FF5BD64414A   44a  488b1dd4fcffff       REX.W movq rbx,[rip+0xfffffcd4]
00007FF5BD644151   451  e83e21ec7f           call 00007FF63D506294  (CEntry_Return1_ArgvOnStack_NoBuiltinExit)    ;; near builtin entry
00007FF5BD644156   456  cc                   int3l
00007FF5BD644157   457  488945b0             REX.W movq [rbp-0x50],rax
00007FF5BD64415B   45b  48b85129e4be23010000 REX.W movq rax,00000123BEE42951    ;; object: 0x0123bee42951 <String[13]: #NativeModule >
00007FF5BD644165   465  488945a8             REX.W movq [rbp-0x58],rax
00007FF5BD644169   469  488b45d0             REX.W movq rax,[rbp-0x30]
00007FF5BD64416D   46d  488b75f8             REX.W movq rsi,[rbp-0x8]
00007FF5BD644171   471  e85e1ff07f           call 00007FF63D5460D4  (ToString)    ;; near builtin entry
00007FF5BD644176   476  488b55a8             REX.W movq rdx,[rbp-0x58]
00007FF5BD64417A   47a  bb18000000           movl rbx,0000000000000018
00007FF5BD64417F   47f  e8900ae97f           call 00007FF63D4D4C14  (Add_Baseline)    ;; near builtin entry
00007FF5BD644184   484  488945a8             REX.W movq [rbp-0x58],rax
00007FF5BD644188   488  488b45b8             REX.W movq rax,[rbp-0x48]
00007FF5BD64418C   48c  bb03190000           movl rbx,0000000000001903
00007FF5BD644191   491  ff75a8               push [rbp-0x58]
00007FF5BD644194   494  ff75b0               push [rbp-0x50]
00007FF5BD644197   497  41ffb590010000       push [r13+0x190] (root (undefined_value))
00007FF5BD64419E   49e  e83199e27f           call 00007FF63D46DAD4  (Call_ReceiverIsNullOrUndefined_Baseline_Compact)    ;; near builtin entry
00007FF5BD6441A3   4a3  488b5510             REX.W movq rdx,[rbp+0x10]
00007FF5BD6441A7   4a7  48b9b926e4be23010000 REX.W movq rcx,00000123BEE426B9    ;; object: 0x0123bee426b9 <String[7]: #exports>
00007FF5BD6441B1   4b1  b836000000           movl rax,0000000000000036
00007FF5BD6441B6   4b6  e8d931e77f           call 00007FF63D4B7394  (LoadICBaseline)    ;; near builtin entry
00007FF5BD6441BB   4bb  bb01000000           movl rbx,0000000000000001
00007FF5BD6441C0   4c0  48c7c151ffffff       REX.W movq rcx,0xffffff51
00007FF5BD6441C7   4c7  e94844e37f           jmp 00007FF63D478614  (BaselineLeaveFrame)    ;; near builtin entry


RelocInfo (size = 82)
00007FF5BD643D07  full embedded object  (0x0123bee7b2f9 <BytecodeArray[175]>)
00007FF5BD643D10  near builtin entry
00007FF5BD643D27  full embedded object  (0x0123bee426d1 <String[6]: #loaded>)
00007FF5BD643D32  near builtin entry
00007FF5BD643D37  near builtin entry
00007FF5BD643D58  full embedded object  (0x0123bee426e9 <String[7]: #loading>)
00007FF5BD643D66  near builtin entry
00007FF5BD643D6B  near builtin entry
00007FF5BD643D8C  full embedded object  (0x0123bee426b9 <String[7]: #exports>)
00007FF5BD643D9A  near builtin entry
00007FF5BD643DAB  near builtin entry
00007FF5BD643DB5  full embedded object  (0x036663f06591 <String[2]: #id>)
00007FF5BD643DC3  near builtin entry
00007FF5BD643DD8  full embedded object  (0x0123bee426e9 <String[7]: #loading>)
00007FF5BD643DE6  near builtin entry
00007FF5BD643E14  full embedded object  (0x0123bee42319 <String[25]: #StringPrototypeStartsWith>)
00007FF5BD643E2E  near builtin entry
00007FF5BD643E3D  full embedded object  (0x036663f06591 <String[2]: #id>)
00007FF5BD643E4B  near builtin entry
00007FF5BD643E55  full embedded object  (0x0123bee42931 <String[14]: #internal/deps/>)
00007FF5BD643E78  near builtin entry
00007FF5BD643E7D  near builtin entry
00007FF5BD643EEE  full embedded object  (0x0123bee424b1 <String[15]: #compileFunction>)
00007FF5BD643F05  near builtin entry
00007FF5BD643F22  near builtin entry
00007FF5BD643F30  full embedded object  (0x0123bee426b9 <String[7]: #exports>)
00007FF5BD643F3E  near builtin entry
00007FF5BD643F78  full embedded object  (0x0123bee42459 <String[15]: #internalBinding>)
00007FF5BD643F8F  near builtin entry
00007FF5BD643FE7  near builtin entry
00007FF5BD643FF8  full embedded object  (0x0123bee426d1 <String[6]: #loaded>)
00007FF5BD644006  near builtin entry
00007FF5BD644063  full embedded object  (0x0123bee426e9 <String[7]: #loading>)
00007FF5BD644071  near builtin entry
00007FF5BD6440D5  near builtin entry
00007FF5BD6440F9  full embedded object  (0x0123bee42279 <String[18]: #ArrayPrototypePush>)
00007FF5BD644110  near builtin entry
00007FF5BD64413B  full embedded object  (0x0123bee42371 <String[14]: #moduleLoadList>)
00007FF5BD644152  near builtin entry
00007FF5BD64415D  full embedded object  (0x0123bee42951 <String[13]: #NativeModule >)
00007FF5BD644172  near builtin entry
00007FF5BD644180  near builtin entry
00007FF5BD64419F  near builtin entry
00007FF5BD6441A9  full embedded object  (0x0123bee426b9 <String[7]: #exports>)
00007FF5BD6441B7  near builtin entry
00007FF5BD6441C8  near builtin entry

000003F7CA6C5519: [Code] in OldSpace
 - map: 0x036663f01019 <Map[88](CODE_TYPE)>
 - kind: BASELINE
 - instruction_stream: 0x7ff5bd6441f1 <InstructionStream BASELINE>
 - code_entry_point: 00007FF5BD644200
 - kind_specific_flags: 0
00007FF5BD6441F1: [InstructionStream]
 - map: 0x036663f00951 <Map(INSTRUCTION_STREAM_TYPE)>
 - code: 0x03f7ca6c5519 <Code BASELINE>kind = BASELINE
compiler = baseline
address = 000003F7CA6C5519

Instructions (size = 536)
00007FF5BD644200     0  bb38000000           movl rbx,0000000000000038
00007FF5BD644205     5  49bcd1aae7be23010000 REX.W movq r12,00000123BEE7AAD1    ;; object: 0x0123bee7aad1 <BytecodeArray[69]>
00007FF5BD64420F     f  e88041e37f           call 00007FF63D478394  (BaselineOutOfLinePrologue)    ;; near builtin entry
00007FF5BD644214    14  50                   push rax
00007FF5BD644215    15  50                   push rax
00007FF5BD644216    16  50                   push rax
00007FF5BD644217    17  50                   push rax
00007FF5BD644218    18  4c8b45f8             REX.W movq r8,[rbp-0x8]
00007FF5BD64421C    1c  498b401f             REX.W movq rax,[r8+0x1f]
00007FF5BD644220    20  493b8598010000       REX.W cmpq rax,[r13+0x198] (root (the_hole_value))
00007FF5BD644227    27  0f8525000000         jnz 00007FF5BD644252  <+0x52>
00007FF5BD64422D    2d  488b75f8             REX.W movq rsi,[rbp-0x8]
00007FF5BD644231    31  49ba8921e4be23010000 REX.W movq r10,00000123BEE42189    ;; object: 0x0123bee42189 <String[10]: #bindingObj>
00007FF5BD64423B    3b  4152                 push r10
00007FF5BD64423D    3d  b801000000           movl rax,0000000000000001
00007FF5BD644242    42  48bb5038f83cf67f0000 REX.W movq rbx,00007FF63CF83850
00007FF5BD64424C    4c  e84320ec7f           call 00007FF63D506294  (CEntry_Return1_ArgvOnStack_NoBuiltinExit)    ;; near builtin entry
00007FF5BD644251    51  cc                   int3l
00007FF5BD644252    52  488945c8             REX.W movq [rbp-0x38],rax
00007FF5BD644256    56  488b4518             REX.W movq rax,[rbp+0x18]
00007FF5BD64425A    5a  488b55c8             REX.W movq rdx,[rbp-0x38]
00007FF5BD64425E    5e  33c9                 xorl rcx,rcx
00007FF5BD644260    60  e86fe9e77f           call 00007FF63D4C2BD4  (KeyedLoadICBaseline)    ;; near builtin entry
00007FF5BD644265    65  488945d0             REX.W movq [rbp-0x30],rax
00007FF5BD644269    69  a801                 test al,0x1
00007FF5BD64426B    6b  7427                 jz 00007FF5BD644294  <+0x94>
00007FF5BD64426D    6d  493b85a0010000       REX.W cmpq rax,[r13+0x1a0] (root (null_value))
00007FF5BD644274    74  7415                 jz 00007FF5BD64428B  <+0x8b>
00007FF5BD644276    76  4c8b40ff             REX.W movq r8,[rax-0x1]
00007FF5BD64427A    7a  664181780b1401       cmpw [r8+0xb],0x114
00007FF5BD644281    81  7c11                 jl 00007FF5BD644294  <+0x94>
00007FF5BD644283    83  418a400d             movb al,[r8+0xd]
00007FF5BD644287    87  a812                 test al,0x12
00007FF5BD644289    89  7509                 jnz 00007FF5BD644294  <+0x94>
00007FF5BD64428B    8b  498b85a8010000       REX.W movq rax,[r13+0x1a8] (root (true_value))
00007FF5BD644292    92  eb07                 jmp 00007FF5BD64429B  <+0x9b>
00007FF5BD644294    94  498b85b0010000       REX.W movq rax,[r13+0x1b0] (root (false_value))
00007FF5BD64429B    9b  493b85a8010000       REX.W cmpq rax,[r13+0x1a8] (root (true_value))
00007FF5BD6442A2    a2  7512                 jnz 00007FF5BD6442B6  <+0xb6>
00007FF5BD6442A4    a4  4c8b45f0             REX.W movq r8,[rbp-0x10]
00007FF5BD6442A8    a8  4d8b4027             REX.W movq r8,[r8+0x27]
00007FF5BD6442AC    ac  4183400f33           addl [r8+0xf],0x33
00007FF5BD6442B1    b1  e94a010000           jmp 00007FF5BD644400  <+0x200>
00007FF5BD6442B6    b6  4c8b45f8             REX.W movq r8,[rbp-0x8]
00007FF5BD6442BA    ba  498b401f             REX.W movq rax,[r8+0x1f]
00007FF5BD6442BE    be  493b8598010000       REX.W cmpq rax,[r13+0x198] (root (the_hole_value))
00007FF5BD6442C5    c5  0f8522000000         jnz 00007FF5BD6442ED  <+0xed>
00007FF5BD6442CB    cb  488b75f8             REX.W movq rsi,[rbp-0x8]
00007FF5BD6442CF    cf  49ba8921e4be23010000 REX.W movq r10,00000123BEE42189    ;; object: 0x0123bee42189 <String[10]: #bindingObj>
00007FF5BD6442D9    d9  4152                 push r10
00007FF5BD6442DB    db  b801000000           movl rax,0000000000000001
00007FF5BD6442E0    e0  488b1d5dffffff       REX.W movq rbx,[rip+0xffffff5d]
00007FF5BD6442E7    e7  e8a81fec7f           call 00007FF63D506294  (CEntry_Return1_ArgvOnStack_NoBuiltinExit)    ;; near builtin entry
00007FF5BD6442EC    ec  cc                   int3l
00007FF5BD6442ED    ed  488945c8             REX.W movq [rbp-0x38],rax
00007FF5BD6442F1    f1  4c8b45f8             REX.W movq r8,[rbp-0x8]
00007FF5BD6442F5    f5  4d8b4017             REX.W movq r8,[r8+0x17]
00007FF5BD6442F9    f9  498b4027             REX.W movq rax,[r8+0x27]
00007FF5BD6442FD    fd  488945b8             REX.W movq [rbp-0x48],rax
00007FF5BD644301   101  488b45b8             REX.W movq rax,[rbp-0x48]
00007FF5BD644305   105  bb02020000           movl rbx,0000000000000202
00007FF5BD64430A   10a  ff7518               push [rbp+0x18]
00007FF5BD64430D   10d  41ffb590010000       push [r13+0x190] (root (undefined_value))
00007FF5BD644314   114  e8bb97e27f           call 00007FF63D46DAD4  (Call_ReceiverIsNullOrUndefined_Baseline_Compact)    ;; near builtin entry
00007FF5BD644319   119  488945b8             REX.W movq [rbp-0x48],rax
00007FF5BD64431D   11d  488b55c8             REX.W movq rdx,[rbp-0x38]
00007FF5BD644321   121  488b4d18             REX.W movq rcx,[rbp+0x18]
00007FF5BD644325   125  bf08000000           movl rdi,0000000000000008
00007FF5BD64432A   12a  e8e547e87f           call 00007FF63D4C8B14  (KeyedStoreICBaseline)    ;; near builtin entry
00007FF5BD64432F   12f  4c8b45b8             REX.W movq r8,[rbp-0x48]
00007FF5BD644333   133  4c8945d0             REX.W movq [rbp-0x30],r8
00007FF5BD644337   137  4c8b45f8             REX.W movq r8,[rbp-0x8]
00007FF5BD64433B   13b  4d8b4017             REX.W movq r8,[r8+0x17]
00007FF5BD64433F   13f  498b405f             REX.W movq rax,[r8+0x5f]
00007FF5BD644343   143  493b8598010000       REX.W cmpq rax,[r13+0x198] (root (the_hole_value))
00007FF5BD64434A   14a  0f8522000000         jnz 00007FF5BD644372  <+0x172>
00007FF5BD644350   150  488b75f8             REX.W movq rsi,[rbp-0x8]
00007FF5BD644354   154  49ba7922e4be23010000 REX.W movq r10,00000123BEE42279    ;; object: 0x0123bee42279 <String[18]: #ArrayPrototypePush>
00007FF5BD64435E   15e  4152                 push r10
00007FF5BD644360   160  b801000000           movl rax,0000000000000001
00007FF5BD644365   165  488b1dd8feffff       REX.W movq rbx,[rip+0xfffffed8]
00007FF5BD64436C   16c  e8231fec7f           call 00007FF63D506294  (CEntry_Return1_ArgvOnStack_NoBuiltinExit)    ;; near builtin entry
00007FF5BD644371   171  cc                   int3l
00007FF5BD644372   172  488945c8             REX.W movq [rbp-0x38],rax
00007FF5BD644376   176  4c8b45f8             REX.W movq r8,[rbp-0x8]
00007FF5BD64437A   17a  4d8b4017             REX.W movq r8,[r8+0x17]
00007FF5BD64437E   17e  498b80c7000000       REX.W movq rax,[r8+0xc7]
00007FF5BD644385   185  493b8598010000       REX.W cmpq rax,[r13+0x198] (root (the_hole_value))
00007FF5BD64438C   18c  0f8522000000         jnz 00007FF5BD6443B4  <+0x1b4>
00007FF5BD644392   192  488b75f8             REX.W movq rsi,[rbp-0x8]
00007FF5BD644396   196  49ba7123e4be23010000 REX.W movq r10,00000123BEE42371    ;; object: 0x0123bee42371 <String[14]: #moduleLoadList>
00007FF5BD6443A0   1a0  4152                 push r10
00007FF5BD6443A2   1a2  b801000000           movl rax,0000000000000001
00007FF5BD6443A7   1a7  488b1d96feffff       REX.W movq rbx,[rip+0xfffffe96]
00007FF5BD6443AE   1ae  e8e11eec7f           call 00007FF63D506294  (CEntry_Return1_ArgvOnStack_NoBuiltinExit)    ;; near builtin entry
00007FF5BD6443B3   1b3  cc                   int3l
00007FF5BD6443B4   1b4  488945c0             REX.W movq [rbp-0x40],rax
00007FF5BD6443B8   1b8  48b86126e4be23010000 REX.W movq rax,00000123BEE42661    ;; object: 0x0123bee42661 <String[17]: #Internal Binding >
00007FF5BD6443C2   1c2  488945b8             REX.W movq [rbp-0x48],rax
00007FF5BD6443C6   1c6  488b4518             REX.W movq rax,[rbp+0x18]
00007FF5BD6443CA   1ca  488b75f8             REX.W movq rsi,[rbp-0x8]
00007FF5BD6443CE   1ce  e8011df07f           call 00007FF63D5460D4  (ToString)    ;; near builtin entry
00007FF5BD6443D3   1d3  488b55b8             REX.W movq rdx,[rbp-0x48]
00007FF5BD6443D7   1d7  bb06000000           movl rbx,0000000000000006
00007FF5BD6443DC   1dc  e83308e97f           call 00007FF63D4D4C14  (Add_Baseline)    ;; near builtin entry
00007FF5BD6443E1   1e1  488945b8             REX.W movq [rbp-0x48],rax
00007FF5BD6443E5   1e5  488b45c8             REX.W movq rax,[rbp-0x38]
00007FF5BD6443E9   1e9  bb03070000           movl rbx,0000000000000703
00007FF5BD6443EE   1ee  ff75b8               push [rbp-0x48]
00007FF5BD6443F1   1f1  ff75c0               push [rbp-0x40]
00007FF5BD6443F4   1f4  41ffb590010000       push [r13+0x190] (root (undefined_value))
00007FF5BD6443FB   1fb  e8d496e27f           call 00007FF63D46DAD4  (Call_ReceiverIsNullOrUndefined_Baseline_Compact)    ;; near builtin entry
00007FF5BD644400   200  488b45d0             REX.W movq rax,[rbp-0x30]
00007FF5BD644404   204  bb02000000           movl rbx,0000000000000002
00007FF5BD644409   209  48c7c1bbffffff       REX.W movq rcx,0xffffffbb
00007FF5BD644410   210  e9ff41e37f           jmp 00007FF63D478614  (BaselineLeaveFrame)    ;; near builtin entry
00007FF5BD644415   215  cc                   int3l
00007FF5BD644416   216  cc                   int3l
00007FF5BD644417   217  cc                   int3l


RelocInfo (size = 32)
00007FF5BD644207  full embedded object  (0x0123bee7aad1 <BytecodeArray[69]>)
00007FF5BD644210  near builtin entry
00007FF5BD644233  full embedded object  (0x0123bee42189 <String[10]: #bindingObj>)
00007FF5BD64424D  near builtin entry
00007FF5BD644261  near builtin entry
00007FF5BD6442D1  full embedded object  (0x0123bee42189 <String[10]: #bindingObj>)
00007FF5BD6442E8  near builtin entry
00007FF5BD644315  near builtin entry
00007FF5BD64432B  near builtin entry
00007FF5BD644356  full embedded object  (0x0123bee42279 <String[18]: #ArrayPrototypePush>)
00007FF5BD64436D  near builtin entry
00007FF5BD644398  full embedded object  (0x0123bee42371 <String[14]: #moduleLoadList>)
00007FF5BD6443AF  near builtin entry
00007FF5BD6443BA  full embedded object  (0x0123bee42661 <String[17]: #Internal Binding >)
00007FF5BD6443CF  near builtin entry
00007FF5BD6443DD  near builtin entry
00007FF5BD6443FC  near builtin entry
00007FF5BD644411  near builtin entry

000003F7CA6C5591: [Code] in OldSpace
 - map: 0x036663f01019 <Map[88](CODE_TYPE)>
 - kind: BASELINE
 - instruction_stream: 0x7ff5bd644431 <InstructionStream BASELINE>
 - code_entry_point: 00007FF5BD644440
 - kind_specific_flags: 0
00007FF5BD644431: [InstructionStream]
 - map: 0x036663f00951 <Map(INSTRUCTION_STREAM_TYPE)>
 - code: 0x03f7ca6c5591 <Code BASELINE>kind = BASELINE
compiler = baseline
address = 000003F7CA6C5591

Instructions (size = 204)
00007FF5BD644440     0  33db                 xorl rbx,rbx
00007FF5BD644442     2  49bcb91f6ccaf7030000 REX.W movq r12,000003F7CA6C1FB9    ;; object: 0x03f7ca6c1fb9 <BytecodeArray[17]>
00007FF5BD64444C     c  e8433fe37f           call 00007FF63D478394  (BaselineOutOfLinePrologue)    ;; near builtin entry
00007FF5BD644451    11  4c8b45f8             REX.W movq r8,[rbp-0x8]
00007FF5BD644455    15  498b407f             REX.W movq rax,[r8+0x7f]
00007FF5BD644459    19  493b8598010000       REX.W cmpq rax,[r13+0x198] (root (the_hole_value))
00007FF5BD644460    20  0f8525000000         jnz 00007FF5BD64448B  <+0x4b>
00007FF5BD644466    26  488b75f8             REX.W movq rsi,[rbp-0x8]
00007FF5BD64446A    2a  49ba69aee4be23010000 REX.W movq r10,00000123BEE4AE69    ;; object: 0x0123bee4ae69 <String[18]: #CHAR_FORWARD_SLASH>
00007FF5BD644474    34  4152                 push r10
00007FF5BD644476    36  b801000000           movl rax,0000000000000001
00007FF5BD64447B    3b  48bb5038f83cf67f0000 REX.W movq rbx,00007FF63CF83850
00007FF5BD644485    45  e80a1eec7f           call 00007FF63D506294  (CEntry_Return1_ArgvOnStack_NoBuiltinExit)    ;; near builtin entry
00007FF5BD64448A    4a  cc                   int3l
00007FF5BD64448B    4b  488b5518             REX.W movq rdx,[rbp+0x18]
00007FF5BD64448F    4f  33db                 xorl rbx,rbx
00007FF5BD644491    51  e8feade97f           call 00007FF63D4DF294  (StrictEqual_Baseline)    ;; near builtin entry
00007FF5BD644496    56  493b85a8010000       REX.W cmpq rax,[r13+0x1a8] (root (true_value))
00007FF5BD64449D    5d  7512                 jnz 00007FF5BD6444B1  <+0x71>
00007FF5BD64449F    5f  4c8b45f0             REX.W movq r8,[rbp-0x10]
00007FF5BD6444A3    63  4d8b4027             REX.W movq r8,[r8+0x27]
00007FF5BD6444A7    67  4183400f07           addl [r8+0xf],0x7
00007FF5BD6444AC    6c  e948000000           jmp 00007FF5BD6444F9  <+0xb9>
00007FF5BD6444B1    71  4c8b45f8             REX.W movq r8,[rbp-0x8]
00007FF5BD6444B5    75  498b8087000000       REX.W movq rax,[r8+0x87]
00007FF5BD6444BC    7c  493b8598010000       REX.W cmpq rax,[r13+0x198] (root (the_hole_value))
00007FF5BD6444C3    83  0f8522000000         jnz 00007FF5BD6444EB  <+0xab>
00007FF5BD6444C9    89  488b75f8             REX.W movq rsi,[rbp-0x8]
00007FF5BD6444CD    8d  49ba91aee4be23010000 REX.W movq r10,00000123BEE4AE91    ;; object: 0x0123bee4ae91 <String[19]: #CHAR_BACKWARD_SLASH>
00007FF5BD6444D7    97  4152                 push r10
00007FF5BD6444D9    99  b801000000           movl rax,0000000000000001
00007FF5BD6444DE    9e  488b1d98ffffff       REX.W movq rbx,[rip+0xffffff98]
00007FF5BD6444E5    a5  e8aa1dec7f           call 00007FF63D506294  (CEntry_Return1_ArgvOnStack_NoBuiltinExit)    ;; near builtin entry
00007FF5BD6444EA    aa  cc                   int3l
00007FF5BD6444EB    ab  488b5518             REX.W movq rdx,[rbp+0x18]
00007FF5BD6444EF    af  bb01000000           movl rbx,0000000000000001
00007FF5BD6444F4    b4  e89bade97f           call 00007FF63D4DF294  (StrictEqual_Baseline)    ;; near builtin entry
00007FF5BD6444F9    b9  bb02000000           movl rbx,0000000000000002
00007FF5BD6444FE    be  48c7c1efffffff       REX.W movq rcx,0xffffffef
00007FF5BD644505    c5  e90a41e37f           jmp 00007FF63D478614  (BaselineLeaveFrame)    ;; near builtin entry
00007FF5BD64450A    ca  cc                   int3l
00007FF5BD64450B    cb  cc                   int3l


RelocInfo (size = 15)
00007FF5BD644444  full embedded object  (0x03f7ca6c1fb9 <BytecodeArray[17]>)
00007FF5BD64444D  near builtin entry
00007FF5BD64446C  full embedded object  (0x0123bee4ae69 <String[18]: #CHAR_FORWARD_SLASH>)
00007FF5BD644486  near builtin entry
00007FF5BD644492  near builtin entry
00007FF5BD6444CF  full embedded object  (0x0123bee4ae91 <String[19]: #CHAR_BACKWARD_SLASH>)
00007FF5BD6444E6  near builtin entry
00007FF5BD6444F5  near builtin entry
00007FF5BD644506  near builtin entry

000003F7CA6C5629: [Code] in OldSpace
 - map: 0x036663f01019 <Map[88](CODE_TYPE)>
 - kind: BASELINE
 - instruction_stream: 0x7ff5bd644531 <InstructionStream BASELINE>
 - code_entry_point: 00007FF5BD644540
 - kind_specific_flags: 0
00007FF5BD644531: [InstructionStream]
 - map: 0x036663f00951 <Map(INSTRUCTION_STREAM_TYPE)>
 - code: 0x03f7ca6c5629 <Code BASELINE>kind = BASELINE
compiler = baseline
address = 000003F7CA6C5629

Instructions (size = 556)
00007FF5BD644540     0  bb50000000           movl rbx,0000000000000050
00007FF5BD644545     5  49bc91356ccaf7030000 REX.W movq r12,000003F7CA6C3591    ;; object: 0x03f7ca6c3591 <BytecodeArray[82]>
00007FF5BD64454F     f  e8403ee37f           call 00007FF63D478394  (BaselineOutOfLinePrologue)    ;; near builtin entry
00007FF5BD644554    14  50                   push rax
00007FF5BD644555    15  50                   push rax
00007FF5BD644556    16  50                   push rax
00007FF5BD644557    17  50                   push rax
00007FF5BD644558    18  50                   push rax
00007FF5BD644559    19  50                   push rax
00007FF5BD64455A    1a  50                   push rax
00007FF5BD64455B    1b  50                   push rax
00007FF5BD64455C    1c  4c8b45f8             REX.W movq r8,[rbp-0x8]
00007FF5BD644560    20  498b4057             REX.W movq rax,[r8+0x57]
00007FF5BD644564    24  488945c0             REX.W movq [rbp-0x40],rax
00007FF5BD644568    28  488b45c0             REX.W movq rax,[rbp-0x40]
00007FF5BD64456C    2c  bb01000000           movl rbx,0000000000000001
00007FF5BD644571    31  41ffb590010000       push [r13+0x190] (root (undefined_value))
00007FF5BD644578    38  e85795e27f           call 00007FF63D46DAD4  (Call_ReceiverIsNullOrUndefined_Baseline_Compact)    ;; near builtin entry
00007FF5BD64457D    3d  488945d0             REX.W movq [rbp-0x30],rax
00007FF5BD644581    41  488b5518             REX.W movq rdx,[rbp+0x18]
00007FF5BD644585    45  48b9f98be5be23010000 REX.W movq rcx,00000123BEE58BF9    ;; object: 0x0123bee58bf9 <String[10]: #startsWith>
00007FF5BD64458F    4f  b804000000           movl rax,0000000000000004
00007FF5BD644594    54  e8fb2de77f           call 00007FF63D4B7394  (LoadICBaseline)    ;; near builtin entry
00007FF5BD644599    59  488945c0             REX.W movq [rbp-0x40],rax
00007FF5BD64459D    5d  48b8d1346ccaf7030000 REX.W movq rax,000003F7CA6C34D1    ;; object: 0x03f7ca6c34d1 <String[5]: #--no->
00007FF5BD6445A7    67  488945b0             REX.W movq [rbp-0x50],rax
00007FF5BD6445AB    6b  488b45c0             REX.W movq rax,[rbp-0x40]
00007FF5BD6445AF    6f  bb02040000           movl rbx,0000000000000402
00007FF5BD6445B4    74  ff75b0               push [rbp-0x50]
00007FF5BD6445B7    77  ff7518               push [rbp+0x18]
00007FF5BD6445BA    7a  e8159de27f           call 00007FF63D46E2D4  (Call_ReceiverIsNotNullOrUndefined_Baseline_Compact)    ;; near builtin entry
00007FF5BD6445BF    7f  e8906ff07f           call 00007FF63D54B554  (ToBooleanForBaselineJump)    ;; near builtin entry
00007FF5BD6445C4    84  4885d2               REX.W testq rdx,rdx
00007FF5BD6445C7    87  7512                 jnz 00007FF5BD6445DB  <+0x9b>
00007FF5BD6445C9    89  4c8b45f0             REX.W movq r8,[rbp-0x10]
00007FF5BD6445CD    8d  4d8b4027             REX.W movq r8,[r8+0x27]
00007FF5BD6445D1    91  4183400f27           addl [r8+0xf],0x27
00007FF5BD6445D6    96  e9f1000000           jmp 00007FF5BD6446CC  <+0x18c>
00007FF5BD6445DB    9b  488b55d0             REX.W movq rdx,[rbp-0x30]
00007FF5BD6445DF    9f  48b9d163f06366030000 REX.W movq rcx,0000036663F063D1    ;; object: 0x036663f063d1 <String[3]: #get>
00007FF5BD6445E9    a9  b80c000000           movl rax,000000000000000C
00007FF5BD6445EE    ae  e8a12de77f           call 00007FF63D4B7394  (LoadICBaseline)    ;; near builtin entry
00007FF5BD6445F3    b3  488945c0             REX.W movq [rbp-0x40],rax
00007FF5BD6445F7    b7  48b8e9346ccaf7030000 REX.W movq rax,000003F7CA6C34E9    ;; object: 0x03f7ca6c34e9 <String[2]: #-->
00007FF5BD644601    c1  488945b0             REX.W movq [rbp-0x50],rax
00007FF5BD644605    c5  488b5518             REX.W movq rdx,[rbp+0x18]
00007FF5BD644609    c9  48b93913e4be23010000 REX.W movq rcx,00000123BEE41339    ;; object: 0x0123bee41339 <String[5]: #slice>
00007FF5BD644613    d3  b812000000           movl rax,0000000000000012
00007FF5BD644618    d8  e8772de77f           call 00007FF63D4B7394  (LoadICBaseline)    ;; near builtin entry
00007FF5BD64461D    dd  488945a8             REX.W movq [rbp-0x58],rax
00007FF5BD644621    e1  48b80000000005000000 REX.W movq rax,0000000500000000
00007FF5BD64462B    eb  48894598             REX.W movq [rbp-0x68],rax
00007FF5BD64462F    ef  488b45a8             REX.W movq rax,[rbp-0x58]
00007FF5BD644633    f3  bb020b0000           movl rbx,0000000000000B02
00007FF5BD644638    f8  ff7598               push [rbp-0x68]
00007FF5BD64463B    fb  ff7518               push [rbp+0x18]
00007FF5BD64463E    fe  e8919ce27f           call 00007FF63D46E2D4  (Call_ReceiverIsNotNullOrUndefined_Baseline_Compact)    ;; near builtin entry
00007FF5BD644643   103  488b55b0             REX.W movq rdx,[rbp-0x50]
00007FF5BD644647   107  bb08000000           movl rbx,0000000000000008
00007FF5BD64464C   10c  e8c305e97f           call 00007FF63D4D4C14  (Add_Baseline)    ;; near builtin entry
00007FF5BD644651   111  488945b0             REX.W movq [rbp-0x50],rax
00007FF5BD644655   115  488b45c0             REX.W movq rax,[rbp-0x40]
00007FF5BD644659   119  bb020d0000           movl rbx,0000000000000D02
00007FF5BD64465E   11e  ff75b0               push [rbp-0x50]
00007FF5BD644661   121  ff75d0               push [rbp-0x30]
00007FF5BD644664   124  e86b9ce27f           call 00007FF63D46E2D4  (Call_ReceiverIsNotNullOrUndefined_Baseline_Compact)    ;; near builtin entry
00007FF5BD644669   129  488945c8             REX.W movq [rbp-0x38],rax
00007FF5BD64466D   12d  e8e26ef07f           call 00007FF63D54B554  (ToBooleanForBaselineJump)    ;; near builtin entry
00007FF5BD644672   132  4885d2               REX.W testq rdx,rdx
00007FF5BD644675   135  7512                 jnz 00007FF5BD644689  <+0x149>
00007FF5BD644677   137  4c8b45f0             REX.W movq r8,[rbp-0x10]
00007FF5BD64467B   13b  4d8b4027             REX.W movq r8,[r8+0x27]
00007FF5BD64467F   13f  4183400f05           addl [r8+0xf],0x5
00007FF5BD644684   144  e932000000           jmp 00007FF5BD6446BB  <+0x17b>
00007FF5BD644689   149  488b55c8             REX.W movq rdx,[rbp-0x38]
00007FF5BD64468D   14d  48b92148f06366030000 REX.W movq rcx,0000036663F04821    ;; object: 0x036663f04821 <String[5]: #value>
00007FF5BD644697   157  b81e000000           movl rax,000000000000001E
00007FF5BD64469C   15c  e8f32ce77f           call 00007FF63D4B7394  (LoadICBaseline)    ;; near builtin entry
00007FF5BD6446A1   161  e8ae6ef07f           call 00007FF63D54B554  (ToBooleanForBaselineJump)    ;; near builtin entry
00007FF5BD6446A6   166  4885d2               REX.W testq rdx,rdx
00007FF5BD6446A9   169  7409                 jz 00007FF5BD6446B4  <+0x174>
00007FF5BD6446AB   16b  498b85b0010000       REX.W movq rax,[r13+0x1b0] (root (false_value))
00007FF5BD6446B2   172  eb07                 jmp 00007FF5BD6446BB  <+0x17b>
00007FF5BD6446B4   174  498b85a8010000       REX.W movq rax,[r13+0x1a8] (root (true_value))
00007FF5BD6446BB   17b  bb02000000           movl rbx,0000000000000002
00007FF5BD6446C0   180  48c7c1c3ffffff       REX.W movq rcx,0xffffffc3
00007FF5BD6446C7   187  e9483fe37f           jmp 00007FF63D478614  (BaselineLeaveFrame)    ;; near builtin entry
00007FF5BD6446CC   18c  488b55d0             REX.W movq rdx,[rbp-0x30]
00007FF5BD6446D0   190  48b9d163f06366030000 REX.W movq rcx,0000036663F063D1    ;; object: 0x036663f063d1 <String[3]: #get>
00007FF5BD6446DA   19a  b80c000000           movl rax,000000000000000C
00007FF5BD6446DF   19f  e8b02ce77f           call 00007FF63D4B7394  (LoadICBaseline)    ;; near builtin entry
00007FF5BD6446E4   1a4  488945c0             REX.W movq [rbp-0x40],rax
00007FF5BD6446E8   1a8  488b45c0             REX.W movq rax,[rbp-0x40]
00007FF5BD6446EC   1ac  bb02110000           movl rbx,0000000000001102
00007FF5BD6446F1   1b1  ff7518               push [rbp+0x18]
00007FF5BD6446F4   1b4  ff75d0               push [rbp-0x30]
00007FF5BD6446F7   1b7  e8d89be27f           call 00007FF63D46E2D4  (Call_ReceiverIsNotNullOrUndefined_Baseline_Compact)    ;; near builtin entry
00007FF5BD6446FC   1bc  488945c0             REX.W movq [rbp-0x40],rax
00007FF5BD644700   1c0  493b8590010000       REX.W cmpq rax,[r13+0x190] (root (undefined_value))
00007FF5BD644707   1c7  0f8409000000         jz 00007FF5BD644716  <+0x1d6>
00007FF5BD64470D   1cd  493b85a0010000       REX.W cmpq rax,[r13+0x1a0] (root (null_value))
00007FF5BD644714   1d4  7512                 jnz 00007FF5BD644728  <+0x1e8>
00007FF5BD644716   1d6  4c8b45f0             REX.W movq r8,[rbp-0x10]
00007FF5BD64471A   1da  4d8b4027             REX.W movq r8,[r8+0x27]
00007FF5BD64471E   1de  4183400f06           addl [r8+0xf],0x6
00007FF5BD644723   1e3  e92a000000           jmp 00007FF5BD644752  <+0x212>
00007FF5BD644728   1e8  488b55c0             REX.W movq rdx,[rbp-0x40]
00007FF5BD64472C   1ec  48b92148f06366030000 REX.W movq rcx,0000036663F04821    ;; object: 0x036663f04821 <String[5]: #value>
00007FF5BD644736   1f6  b826000000           movl rax,0000000000000026
00007FF5BD64473B   1fb  e8542ce77f           call 00007FF63D4B7394  (LoadICBaseline)    ;; near builtin entry
00007FF5BD644740   200  4c8b45f0             REX.W movq r8,[rbp-0x10]
00007FF5BD644744   204  4d8b4027             REX.W movq r8,[r8+0x27]
00007FF5BD644748   208  4183400f01           addl [r8+0xf],0x1
00007FF5BD64474D   20d  e907000000           jmp 00007FF5BD644759  <+0x219>
00007FF5BD644752   212  498b8590010000       REX.W movq rax,[r13+0x190] (root (undefined_value))
00007FF5BD644759   219  bb02000000           movl rbx,0000000000000002
00007FF5BD64475E   21e  48c7c1aeffffff       REX.W movq rcx,0xffffffae
00007FF5BD644765   225  e9aa3ee37f           jmp 00007FF63D478614  (BaselineLeaveFrame)    ;; near builtin entry
00007FF5BD64476A   22a  cc                   int3l
00007FF5BD64476B   22b  cc                   int3l


RelocInfo (size = 45)
00007FF5BD644547  full embedded object  (0x03f7ca6c3591 <BytecodeArray[82]>)
00007FF5BD644550  near builtin entry
00007FF5BD644579  near builtin entry
00007FF5BD644587  full embedded object  (0x0123bee58bf9 <String[10]: #startsWith>)
00007FF5BD644595  near builtin entry
00007FF5BD64459F  full embedded object  (0x03f7ca6c34d1 <String[5]: #--no->)
00007FF5BD6445BB  near builtin entry
00007FF5BD6445C0  near builtin entry
00007FF5BD6445E1  full embedded object  (0x036663f063d1 <String[3]: #get>)
00007FF5BD6445EF  near builtin entry
00007FF5BD6445F9  full embedded object  (0x03f7ca6c34e9 <String[2]: #-->)
00007FF5BD64460B  full embedded object  (0x0123bee41339 <String[5]: #slice>)
00007FF5BD644619  near builtin entry
00007FF5BD64463F  near builtin entry
00007FF5BD64464D  near builtin entry
00007FF5BD644665  near builtin entry
00007FF5BD64466E  near builtin entry
00007FF5BD64468F  full embedded object  (0x036663f04821 <String[5]: #value>)
00007FF5BD64469D  near builtin entry
00007FF5BD6446A2  near builtin entry
00007FF5BD6446C8  near builtin entry
00007FF5BD6446D2  full embedded object  (0x036663f063d1 <String[3]: #get>)
00007FF5BD6446E0  near builtin entry
00007FF5BD6446F8  near builtin entry
00007FF5BD64472E  full embedded object  (0x036663f04821 <String[5]: #value>)
00007FF5BD64473C  near builtin entry
00007FF5BD644766  near builtin entry

000003F7CA6C56A1: [Code] in OldSpace
 - map: 0x036663f01019 <Map[88](CODE_TYPE)>
 - kind: BASELINE
 - instruction_stream: 0x7ff5bd644771 <InstructionStream BASELINE>
 - code_entry_point: 00007FF5BD644780
 - kind_specific_flags: 0
00007FF5BD644771: [InstructionStream]
 - map: 0x036663f00951 <Map(INSTRUCTION_STREAM_TYPE)>
 - code: 0x03f7ca6c56a1 <Code BASELINE>kind = BASELINE
compiler = baseline
address = 000003F7CA6C56A1

Instructions (size = 132)
00007FF5BD644780     0  bb50000000           movl rbx,0000000000000050
00007FF5BD644785     5  49bc818b54256e030000 REX.W movq r12,0000036E25548B81    ;; object: 0x036e25548b81 <BytecodeArray[21]>
00007FF5BD64478F     f  e8003ce37f           call 00007FF63D478394  (BaselineOutOfLinePrologue)    ;; near builtin entry
00007FF5BD644794    14  50                   push rax
00007FF5BD644795    15  50                   push rax
00007FF5BD644796    16  50                   push rax
00007FF5BD644797    17  50                   push rax
00007FF5BD644798    18  50                   push rax
00007FF5BD644799    19  4c8b45f8             REX.W movq r8,[rbp-0x8]
00007FF5BD64479D    1d  498b8067020000       REX.W movq rax,[r8+0x267]
00007FF5BD6447A4    24  488945d0             REX.W movq [rbp-0x30],rax
00007FF5BD6447A8    28  498b85b0010000       REX.W movq rax,[r13+0x1b0] (root (false_value))
00007FF5BD6447AF    2f  488945b0             REX.W movq [rbp-0x50],rax
00007FF5BD6447B3    33  4c8b4518             REX.W movq r8,[rbp+0x18]
00007FF5BD6447B7    37  4c8945c8             REX.W movq [rbp-0x38],r8
00007FF5BD6447BB    3b  4c8b4520             REX.W movq r8,[rbp+0x20]
00007FF5BD6447BF    3f  4c8945c0             REX.W movq [rbp-0x40],r8
00007FF5BD6447C3    43  4c8b4528             REX.W movq r8,[rbp+0x28]
00007FF5BD6447C7    47  4c8945b8             REX.W movq [rbp-0x48],r8
00007FF5BD6447CB    4b  488b45d0             REX.W movq rax,[rbp-0x30]
00007FF5BD6447CF    4f  bb05000000           movl rbx,0000000000000005
00007FF5BD6447D4    54  ff75b0               push [rbp-0x50]
00007FF5BD6447D7    57  ff75b8               push [rbp-0x48]
00007FF5BD6447DA    5a  ff75c0               push [rbp-0x40]
00007FF5BD6447DD    5d  ff75c8               push [rbp-0x38]
00007FF5BD6447E0    60  41ffb590010000       push [r13+0x190] (root (undefined_value))
00007FF5BD6447E7    67  e8e892e27f           call 00007FF63D46DAD4  (Call_ReceiverIsNullOrUndefined_Baseline_Compact)    ;; near builtin entry
00007FF5BD6447EC    6c  498b8590010000       REX.W movq rax,[r13+0x190] (root (undefined_value))
00007FF5BD6447F3    73  bb04000000           movl rbx,0000000000000004
00007FF5BD6447F8    78  48c7c1ebffffff       REX.W movq rcx,0xffffffeb
00007FF5BD6447FF    7f  e9103ee37f           jmp 00007FF63D478614  (BaselineLeaveFrame)    ;; near builtin entry


RelocInfo (size = 9)
00007FF5BD644787  full embedded object  (0x036e25548b81 <BytecodeArray[21]>)
00007FF5BD644790  near builtin entry
00007FF5BD6447E8  near builtin entry
00007FF5BD644800  near builtin entry

000003F7CA6CE0C1: [Code] in OldSpace
 - map: 0x036663f01019 <Map[88](CODE_TYPE)>
 - kind: BASELINE
 - instruction_stream: 0x7ff5bd644831 <InstructionStream BASELINE>
 - code_entry_point: 00007FF5BD644840
 - kind_specific_flags: 0
00007FF5BD644831: [InstructionStream]
 - map: 0x036663f00951 <Map(INSTRUCTION_STREAM_TYPE)>
 - code: 0x03f7ca6ce0c1 <Code BASELINE>kind = BASELINE
compiler = baseline
address = 000003F7CA6CE0C1

Instructions (size = 316)
00007FF5BD644840     0  bb48000000           movl rbx,0000000000000048
00007FF5BD644845     5  49bce155e7be23010000 REX.W movq r12,00000123BEE755E1    ;; object: 0x0123bee755e1 <BytecodeArray[43]>
00007FF5BD64484F     f  e8403be37f           call 00007FF63D478394  (BaselineOutOfLinePrologue)    ;; near builtin entry
00007FF5BD644854    14  52                   push rdx
00007FF5BD644855    15  50                   push rax
00007FF5BD644856    16  50                   push rax
00007FF5BD644857    17  50                   push rax
00007FF5BD644858    18  50                   push rax
00007FF5BD644859    19  50                   push rax
00007FF5BD64485A    1a  50                   push rax
00007FF5BD64485B    1b  50                   push rax
00007FF5BD64485C    1c  4c8b45f0             REX.W movq r8,[rbp-0x10]
00007FF5BD644860    20  4c8945c8             REX.W movq [rbp-0x38],r8
00007FF5BD644864    24  50                   push rax
00007FF5BD644865    25  488b45c8             REX.W movq rax,[rbp-0x38]
00007FF5BD644869    29  488b5dd0             REX.W movq rbx,[rbp-0x30]
00007FF5BD64486D    2d  488b75f8             REX.W movq rsi,[rbp-0x8]
00007FF5BD644871    31  e81ec2ec7f           call 00007FF63D510A94  (FindNonDefaultConstructorOrConstruct)    ;; near builtin entry
00007FF5BD644876    36  488945a0             REX.W movq [rbp-0x60],rax
00007FF5BD64487A    3a  48895598             REX.W movq [rbp-0x68],rdx
00007FF5BD64487E    3e  58                   pop rax
00007FF5BD64487F    3f  488b45a0             REX.W movq rax,[rbp-0x60]
00007FF5BD644883    43  4c8b45c8             REX.W movq r8,[rbp-0x38]
00007FF5BD644887    47  4c8945c0             REX.W movq [rbp-0x40],r8
00007FF5BD64488B    4b  4c8b4518             REX.W movq r8,[rbp+0x18]
00007FF5BD64488F    4f  4c8945b0             REX.W movq [rbp-0x50],r8
00007FF5BD644893    53  4c8b45d0             REX.W movq r8,[rbp-0x30]
00007FF5BD644897    57  4c8945a8             REX.W movq [rbp-0x58],r8
00007FF5BD64489B    5b  4c8b4598             REX.W movq r8,[rbp-0x68]
00007FF5BD64489F    5f  4c8945b8             REX.W movq [rbp-0x48],r8
00007FF5BD6448A3    63  493b85a8010000       REX.W cmpq rax,[r13+0x1a8] (root (true_value))
00007FF5BD6448AA    6a  7512                 jnz 00007FF5BD6448BE  <+0x7e>
00007FF5BD6448AC    6c  4c8b45f0             REX.W movq r8,[rbp-0x10]
00007FF5BD6448B0    70  4d8b4027             REX.W movq r8,[r8+0x27]
00007FF5BD6448B4    74  4183400f0a           addl [r8+0xf],0xa
00007FF5BD6448B9    79  e954000000           jmp 00007FF5BD644912  <+0xd2>
00007FF5BD6448BE    7e  4c8b45b8             REX.W movq r8,[rbp-0x48]
00007FF5BD6448C2    82  4d8b48ff             REX.W movq r9,[r8-0x1]
00007FF5BD6448C6    86  458a490d             movb r9l,[r9+0xd]
00007FF5BD6448CA    8a  41f6c140             testb r9,0x40
00007FF5BD6448CE    8e  751d                 jnz 00007FF5BD6448ED  <+0xad>
00007FF5BD6448D0    90  488b75f8             REX.W movq rsi,[rbp-0x8]
00007FF5BD6448D4    94  4150                 push r8
00007FF5BD6448D6    96  ff75f0               push [rbp-0x10]
00007FF5BD6448D9    99  b802000000           movl rax,0000000000000002
00007FF5BD6448DE    9e  48bb90f8f83cf67f0000 REX.W movq rbx,00007FF63CF8F890
00007FF5BD6448E8    a8  e8a719ec7f           call 00007FF63D506294  (CEntry_Return1_ArgvOnStack_NoBuiltinExit)    ;; near builtin entry
00007FF5BD6448ED    ad  488b45a8             REX.W movq rax,[rbp-0x58]
00007FF5BD6448F1    b1  488b7db8             REX.W movq rdi,[rbp-0x48]
00007FF5BD6448F5    b5  488bd0               REX.W movq rdx,rax
00007FF5BD6448F8    b8  b802000000           movl rax,0000000000000002
00007FF5BD6448FD    bd  33db                 xorl rbx,rbx
00007FF5BD6448FF    bf  ff75b0               push [rbp-0x50]
00007FF5BD644902    c2  41ffb590010000       push [r13+0x190] (root (undefined_value))
00007FF5BD644909    c9  e806fde27f           call 00007FF63D474614  (Construct_Baseline)    ;; near builtin entry
00007FF5BD64490E    ce  488945b8             REX.W movq [rbp-0x48],rax
00007FF5BD644912    d2  488b4510             REX.W movq rax,[rbp+0x10]
00007FF5BD644916    d6  493b8598010000       REX.W cmpq rax,[r13+0x198] (root (the_hole_value))
00007FF5BD64491D    dd  0f8416000000         jz 00007FF5BD644939  <+0xf9>
00007FF5BD644923    e3  488b75f8             REX.W movq rsi,[rbp-0x8]
00007FF5BD644927    e7  33c0                 xorl rax,rax
00007FF5BD644929    e9  48bbc0f9f83cf67f0000 REX.W movq rbx,00007FF63CF8F9C0
00007FF5BD644933    f3  e85c19ec7f           call 00007FF63D506294  (CEntry_Return1_ArgvOnStack_NoBuiltinExit)    ;; near builtin entry
00007FF5BD644938    f8  cc                   int3l
00007FF5BD644939    f9  4c8b45b8             REX.W movq r8,[rbp-0x48]
00007FF5BD64493D    fd  4c894510             REX.W movq [rbp+0x10],r8
00007FF5BD644941   101  488b4510             REX.W movq rax,[rbp+0x10]
00007FF5BD644945   105  493b8598010000       REX.W cmpq rax,[r13+0x198] (root (the_hole_value))
00007FF5BD64494C   10c  0f8516000000         jnz 00007FF5BD644968  <+0x128>
00007FF5BD644952   112  488b75f8             REX.W movq rsi,[rbp-0x8]
00007FF5BD644956   116  33c0                 xorl rax,rax
00007FF5BD644958   118  48bb70faf83cf67f0000 REX.W movq rbx,00007FF63CF8FA70
00007FF5BD644962   122  e82d19ec7f           call 00007FF63D506294  (CEntry_Return1_ArgvOnStack_NoBuiltinExit)    ;; near builtin entry
00007FF5BD644967   127  cc                   int3l
00007FF5BD644968   128  bb02000000           movl rbx,0000000000000002
00007FF5BD64496D   12d  48c7c1d5ffffff       REX.W movq rcx,0xffffffd5
00007FF5BD644974   134  e99b3ce37f           jmp 00007FF63D478614  (BaselineLeaveFrame)    ;; near builtin entry
00007FF5BD644979   139  cc                   int3l
00007FF5BD64497A   13a  cc                   int3l
00007FF5BD64497B   13b  cc                   int3l


RelocInfo (size = 17)
00007FF5BD644847  full embedded object  (0x0123bee755e1 <BytecodeArray[43]>)
00007FF5BD644850  near builtin entry
00007FF5BD644872  near builtin entry
00007FF5BD6448E9  near builtin entry
00007FF5BD64490A  near builtin entry
00007FF5BD644934  near builtin entry
00007FF5BD644963  near builtin entry
00007FF5BD644975  near builtin entry

000003F7CA6CE149: [Code] in OldSpace
 - map: 0x036663f01019 <Map[88](CODE_TYPE)>
 - kind: BASELINE
 - instruction_stream: 0x7ff5bd6449b1 <InstructionStream BASELINE>
 - code_entry_point: 00007FF5BD6449C0
 - kind_specific_flags: 0
00007FF5BD6449B1: [InstructionStream]
 - map: 0x036663f00951 <Map(INSTRUCTION_STREAM_TYPE)>
 - code: 0x03f7ca6ce149 <Code BASELINE>kind = BASELINE
compiler = baseline
address = 000003F7CA6CE149

Instructions (size = 412)
00007FF5BD6449C0     0  bb18000000           movl rbx,0000000000000018
00007FF5BD6449C5     5  49bce9366ccaf7030000 REX.W movq r12,000003F7CA6C36E9    ;; object: 0x03f7ca6c36e9 <BytecodeArray[33]>
00007FF5BD6449CF     f  e8c039e37f           call 00007FF63D478394  (BaselineOutOfLinePrologue)    ;; near builtin entry
00007FF5BD6449D4    14  50                   push rax
00007FF5BD6449D5    15  50                   push rax
00007FF5BD6449D6    16  4c8b45f8             REX.W movq r8,[rbp-0x8]
00007FF5BD6449DA    1a  498b403f             REX.W movq rax,[r8+0x3f]
00007FF5BD6449DE    1e  493b8598010000       REX.W cmpq rax,[r13+0x198] (root (the_hole_value))
00007FF5BD6449E5    25  0f8525000000         jnz 00007FF5BD644A10  <+0x50>
00007FF5BD6449EB    2b  488b75f8             REX.W movq rsi,[rbp-0x8]
00007FF5BD6449EF    2f  49ba715ae4be23010000 REX.W movq r10,00000123BEE45A71    ;; object: 0x0123bee45a71 <String[10]: #optionsMap>
00007FF5BD6449F9    39  4152                 push r10
00007FF5BD6449FB    3b  b801000000           movl rax,0000000000000001
00007FF5BD644A00    40  48bb5038f83cf67f0000 REX.W movq rbx,00007FF63CF83850
00007FF5BD644A0A    4a  e88518ec7f           call 00007FF63D506294  (CEntry_Return1_ArgvOnStack_NoBuiltinExit)    ;; near builtin entry
00007FF5BD644A0F    4f  cc                   int3l
00007FF5BD644A10    50  e83f6bf07f           call 00007FF63D54B554  (ToBooleanForBaselineJump)    ;; near builtin entry
00007FF5BD644A15    55  4885d2               REX.W testq rdx,rdx
00007FF5BD644A18    58  7412                 jz 00007FF5BD644A2C  <+0x6c>
00007FF5BD644A1A    5a  4c8b45f0             REX.W movq r8,[rbp-0x10]
00007FF5BD644A1E    5e  4d8b4027             REX.W movq r8,[r8+0x27]
00007FF5BD644A22    62  4183400f16           addl [r8+0xf],0x16
00007FF5BD644A27    67  e9e5000000           jmp 00007FF5BD644B11  <+0x151>
00007FF5BD644A2C    6c  4c8b45f8             REX.W movq r8,[rbp-0x8]
00007FF5BD644A30    70  498b4027             REX.W movq rax,[r8+0x27]
00007FF5BD644A34    74  493b8598010000       REX.W cmpq rax,[r13+0x198] (root (the_hole_value))
00007FF5BD644A3B    7b  0f8522000000         jnz 00007FF5BD644A63  <+0xa3>
00007FF5BD644A41    81  488b75f8             REX.W movq rsi,[rbp-0x8]
00007FF5BD644A45    85  49baf959e4be23010000 REX.W movq r10,00000123BEE459F9    ;; object: 0x0123bee459f9 <String[13]: #getCLIOptions>
00007FF5BD644A4F    8f  4152                 push r10
00007FF5BD644A51    91  b801000000           movl rax,0000000000000001
00007FF5BD644A56    96  488b1da5ffffff       REX.W movq rbx,[rip+0xffffffa5]
00007FF5BD644A5D    9d  e83218ec7f           call 00007FF63D506294  (CEntry_Return1_ArgvOnStack_NoBuiltinExit)    ;; near builtin entry
00007FF5BD644A62    a2  cc                   int3l
00007FF5BD644A63    a3  488945d0             REX.W movq [rbp-0x30],rax
00007FF5BD644A67    a7  488b45d0             REX.W movq rax,[rbp-0x30]
00007FF5BD644A6B    ab  bb01000000           movl rbx,0000000000000001
00007FF5BD644A70    b0  41ffb590010000       push [r13+0x190] (root (undefined_value))
00007FF5BD644A77    b7  e85890e27f           call 00007FF63D46DAD4  (Call_ReceiverIsNullOrUndefined_Baseline_Compact)    ;; near builtin entry
00007FF5BD644A7C    bc  488945d0             REX.W movq [rbp-0x30],rax
00007FF5BD644A80    c0  488b55d0             REX.W movq rdx,[rbp-0x30]
00007FF5BD644A84    c4  48b939d0e4be23010000 REX.W movq rcx,00000123BEE4D039    ;; object: 0x0123bee4d039 <String[7]: #options>
00007FF5BD644A8E    ce  b804000000           movl rax,0000000000000004
00007FF5BD644A93    d3  e8fc28e77f           call 00007FF63D4B7394  (LoadICBaseline)    ;; near builtin entry
00007FF5BD644A98    d8  488945c8             REX.W movq [rbp-0x38],rax
00007FF5BD644A9C    dc  4c8b45f8             REX.W movq r8,[rbp-0x8]
00007FF5BD644AA0    e0  498b403f             REX.W movq rax,[r8+0x3f]
00007FF5BD644AA4    e4  493b8598010000       REX.W cmpq rax,[r13+0x198] (root (the_hole_value))
00007FF5BD644AAB    eb  0f8522000000         jnz 00007FF5BD644AD3  <+0x113>
00007FF5BD644AB1    f1  488b75f8             REX.W movq rsi,[rbp-0x8]
00007FF5BD644AB5    f5  49ba715ae4be23010000 REX.W movq r10,00000123BEE45A71    ;; object: 0x0123bee45a71 <String[10]: #optionsMap>
00007FF5BD644ABF    ff  4152                 push r10
00007FF5BD644AC1   101  b801000000           movl rax,0000000000000001
00007FF5BD644AC6   106  488b1d35ffffff       REX.W movq rbx,[rip+0xffffff35]
00007FF5BD644ACD   10d  e8c217ec7f           call 00007FF63D506294  (CEntry_Return1_ArgvOnStack_NoBuiltinExit)    ;; near builtin entry
00007FF5BD644AD2   112  cc                   int3l
00007FF5BD644AD3   113  488b45c8             REX.W movq rax,[rbp-0x38]
00007FF5BD644AD7   117  488bc8               REX.W movq rcx,rax
00007FF5BD644ADA   11a  488b7df8             REX.W movq rdi,[rbp-0x8]
00007FF5BD644ADE   11e  48894f3f             REX.W movq [rdi+0x3f],rcx
00007FF5BD644AE2   122  f6c101               testb rcx,0x1
00007FF5BD644AE5   125  0f8426000000         jz 00007FF5BD644B11  <+0x151>
00007FF5BD644AEB   12b  4c8d473f             REX.W leaq r8,[rdi+0x3f]
00007FF5BD644AEF   12f  4881e10000fcff       REX.W andq rcx,0xfffffffffffc0000
00007FF5BD644AF6   136  f6410802             testb [rcx+0x8],0x2
00007FF5BD644AFA   13a  7415                 jz 00007FF5BD644B11  <+0x151>
00007FF5BD644AFC   13c  48c7c10000fcff       REX.W movq rcx,0xfffc0000
00007FF5BD644B03   143  4823cf               REX.W andq rcx,rdi
00007FF5BD644B06   146  f6410804             testb [rcx+0x8],0x4
00007FF5BD644B0A   14a  7405                 jz 00007FF5BD644B11  <+0x151>
00007FF5BD644B0C   14c  e8037ee27f           call 00007FF63D46C914  (RecordWriteIgnoreFP)    ;; near builtin entry
00007FF5BD644B11   151  4c8b45f8             REX.W movq r8,[rbp-0x8]
00007FF5BD644B15   155  498b403f             REX.W movq rax,[r8+0x3f]
00007FF5BD644B19   159  493b8598010000       REX.W cmpq rax,[r13+0x198] (root (the_hole_value))
00007FF5BD644B20   160  0f8522000000         jnz 00007FF5BD644B48  <+0x188>
00007FF5BD644B26   166  488b75f8             REX.W movq rsi,[rbp-0x8]
00007FF5BD644B2A   16a  49ba715ae4be23010000 REX.W movq r10,00000123BEE45A71    ;; object: 0x0123bee45a71 <String[10]: #optionsMap>
00007FF5BD644B34   174  4152                 push r10
00007FF5BD644B36   176  b801000000           movl rax,0000000000000001
00007FF5BD644B3B   17b  488b1dc0feffff       REX.W movq rbx,[rip+0xfffffec0]
00007FF5BD644B42   182  e84d17ec7f           call 00007FF63D506294  (CEntry_Return1_ArgvOnStack_NoBuiltinExit)    ;; near builtin entry
00007FF5BD644B47   187  cc                   int3l
00007FF5BD644B48   188  bb01000000           movl rbx,0000000000000001
00007FF5BD644B4D   18d  48c7c1dfffffff       REX.W movq rcx,0xffffffdf
00007FF5BD644B54   194  e9bb3ae37f           jmp 00007FF63D478614  (BaselineLeaveFrame)    ;; near builtin entry
00007FF5BD644B59   199  cc                   int3l
00007FF5BD644B5A   19a  cc                   int3l
00007FF5BD644B5B   19b  cc                   int3l


RelocInfo (size = 26)
00007FF5BD6449C7  full embedded object  (0x03f7ca6c36e9 <BytecodeArray[33]>)
00007FF5BD6449D0  near builtin entry
00007FF5BD6449F1  full embedded object  (0x0123bee45a71 <String[10]: #optionsMap>)
00007FF5BD644A0B  near builtin entry
00007FF5BD644A11  near builtin entry
00007FF5BD644A47  full embedded object  (0x0123bee459f9 <String[13]: #getCLIOptions>)
00007FF5BD644A5E  near builtin entry
00007FF5BD644A78  near builtin entry
00007FF5BD644A86  full embedded object  (0x0123bee4d039 <String[7]: #options>)
00007FF5BD644A94  near builtin entry
00007FF5BD644AB7  full embedded object  (0x0123bee45a71 <String[10]: #optionsMap>)
00007FF5BD644ACE  near builtin entry
00007FF5BD644B0D  near builtin entry
00007FF5BD644B2C  full embedded object  (0x0123bee45a71 <String[10]: #optionsMap>)
00007FF5BD644B43  near builtin entry
00007FF5BD644B55  near builtin entry

000003F7CA6CE1C1: [Code] in OldSpace
 - map: 0x036663f01019 <Map[88](CODE_TYPE)>
 - kind: BASELINE
 - instruction_stream: 0x7ff5bd644b71 <InstructionStream BASELINE>
 - code_entry_point: 00007FF5BD644B80
 - kind_specific_flags: 0
00007FF5BD644B71: [InstructionStream]
 - map: 0x036663f00951 <Map(INSTRUCTION_STREAM_TYPE)>
 - code: 0x03f7ca6ce1c1 <Code BASELINE>kind = BASELINE
compiler = baseline
address = 000003F7CA6CE1C1

Instructions (size = 100)
00007FF5BD644B80     0  bb20000000           movl rbx,0000000000000020
00007FF5BD644B85     5  49bc9949e7be23010000 REX.W movq r12,00000123BEE74999    ;; object: 0x0123bee74999 <BytecodeArray[13]>
00007FF5BD644B8F     f  e80038e37f           call 00007FF63D478394  (BaselineOutOfLinePrologue)    ;; near builtin entry
00007FF5BD644B94    14  50                   push rax
00007FF5BD644B95    15  50                   push rax
00007FF5BD644B96    16  4c8b45f8             REX.W movq r8,[rbp-0x8]
00007FF5BD644B9A    1a  498b401f             REX.W movq rax,[r8+0x1f]
00007FF5BD644B9E    1e  488945d0             REX.W movq [rbp-0x30],rax
00007FF5BD644BA2    22  488b5510             REX.W movq rdx,[rbp+0x10]
00007FF5BD644BA6    26  48b9c91be4be23010000 REX.W movq rcx,00000123BEE41BC9    ;; object: 0x0123bee41bc9 <String[9]: #_iterator>
00007FF5BD644BB0    30  33c0                 xorl rax,rax
00007FF5BD644BB2    32  e8dd27e77f           call 00007FF63D4B7394  (LoadICBaseline)    ;; near builtin entry
00007FF5BD644BB7    37  488945c8             REX.W movq [rbp-0x38],rax
00007FF5BD644BBB    3b  488b45d0             REX.W movq rax,[rbp-0x30]
00007FF5BD644BBF    3f  bb02020000           movl rbx,0000000000000202
00007FF5BD644BC4    44  ff75c8               push [rbp-0x38]
00007FF5BD644BC7    47  41ffb590010000       push [r13+0x190] (root (undefined_value))
00007FF5BD644BCE    4e  e8018fe27f           call 00007FF63D46DAD4  (Call_ReceiverIsNullOrUndefined_Baseline_Compact)    ;; near builtin entry
00007FF5BD644BD3    53  bb01000000           movl rbx,0000000000000001
00007FF5BD644BD8    58  48c7c1f3ffffff       REX.W movq rcx,0xfffffff3
00007FF5BD644BDF    5f  e9303ae37f           jmp 00007FF63D478614  (BaselineLeaveFrame)    ;; near builtin entry


RelocInfo (size = 10)
00007FF5BD644B87  full embedded object  (0x0123bee74999 <BytecodeArray[13]>)
00007FF5BD644B90  near builtin entry
00007FF5BD644BA8  full embedded object  (0x0123bee41bc9 <String[9]: #_iterator>)
00007FF5BD644BB3  near builtin entry
00007FF5BD644BCF  near builtin entry
00007FF5BD644BE0  near builtin entry

000003F7CA6CE241: [Code] in OldSpace
 - map: 0x036663f01019 <Map[88](CODE_TYPE)>
 - kind: BASELINE
 - instruction_stream: 0x7ff5bd644bf1 <InstructionStream BASELINE>
 - code_entry_point: 00007FF5BD644C00
 - kind_specific_flags: 0
00007FF5BD644BF1: [InstructionStream]
 - map: 0x036663f00951 <Map(INSTRUCTION_STREAM_TYPE)>
 - code: 0x03f7ca6ce241 <Code BASELINE>kind = BASELINE
compiler = baseline
address = 000003F7CA6CE241

Instructions (size = 316)
00007FF5BD644C00     0  bb48000000           movl rbx,0000000000000048
00007FF5BD644C05     5  49bc3158e7be23010000 REX.W movq r12,00000123BEE75831    ;; object: 0x0123bee75831 <BytecodeArray[43]>
00007FF5BD644C0F     f  e88037e37f           call 00007FF63D478394  (BaselineOutOfLinePrologue)    ;; near builtin entry
00007FF5BD644C14    14  52                   push rdx
00007FF5BD644C15    15  50                   push rax
00007FF5BD644C16    16  50                   push rax
00007FF5BD644C17    17  50                   push rax
00007FF5BD644C18    18  50                   push rax
00007FF5BD644C19    19  50                   push rax
00007FF5BD644C1A    1a  50                   push rax
00007FF5BD644C1B    1b  50                   push rax
00007FF5BD644C1C    1c  4c8b45f0             REX.W movq r8,[rbp-0x10]
00007FF5BD644C20    20  4c8945c8             REX.W movq [rbp-0x38],r8
00007FF5BD644C24    24  50                   push rax
00007FF5BD644C25    25  488b45c8             REX.W movq rax,[rbp-0x38]
00007FF5BD644C29    29  488b5dd0             REX.W movq rbx,[rbp-0x30]
00007FF5BD644C2D    2d  488b75f8             REX.W movq rsi,[rbp-0x8]
00007FF5BD644C31    31  e85ebeec7f           call 00007FF63D510A94  (FindNonDefaultConstructorOrConstruct)    ;; near builtin entry
00007FF5BD644C36    36  488945a0             REX.W movq [rbp-0x60],rax
00007FF5BD644C3A    3a  48895598             REX.W movq [rbp-0x68],rdx
00007FF5BD644C3E    3e  58                   pop rax
00007FF5BD644C3F    3f  488b45a0             REX.W movq rax,[rbp-0x60]
00007FF5BD644C43    43  4c8b45c8             REX.W movq r8,[rbp-0x38]
00007FF5BD644C47    47  4c8945c0             REX.W movq [rbp-0x40],r8
00007FF5BD644C4B    4b  4c8b4518             REX.W movq r8,[rbp+0x18]
00007FF5BD644C4F    4f  4c8945b0             REX.W movq [rbp-0x50],r8
00007FF5BD644C53    53  4c8b45d0             REX.W movq r8,[rbp-0x30]
00007FF5BD644C57    57  4c8945a8             REX.W movq [rbp-0x58],r8
00007FF5BD644C5B    5b  4c8b4598             REX.W movq r8,[rbp-0x68]
00007FF5BD644C5F    5f  4c8945b8             REX.W movq [rbp-0x48],r8
00007FF5BD644C63    63  493b85a8010000       REX.W cmpq rax,[r13+0x1a8] (root (true_value))
00007FF5BD644C6A    6a  7512                 jnz 00007FF5BD644C7E  <+0x7e>
00007FF5BD644C6C    6c  4c8b45f0             REX.W movq r8,[rbp-0x10]
00007FF5BD644C70    70  4d8b4027             REX.W movq r8,[r8+0x27]
00007FF5BD644C74    74  4183400f0a           addl [r8+0xf],0xa
00007FF5BD644C79    79  e954000000           jmp 00007FF5BD644CD2  <+0xd2>
00007FF5BD644C7E    7e  4c8b45b8             REX.W movq r8,[rbp-0x48]
00007FF5BD644C82    82  4d8b48ff             REX.W movq r9,[r8-0x1]
00007FF5BD644C86    86  458a490d             movb r9l,[r9+0xd]
00007FF5BD644C8A    8a  41f6c140             testb r9,0x40
00007FF5BD644C8E    8e  751d                 jnz 00007FF5BD644CAD  <+0xad>
00007FF5BD644C90    90  488b75f8             REX.W movq rsi,[rbp-0x8]
00007FF5BD644C94    94  4150                 push r8
00007FF5BD644C96    96  ff75f0               push [rbp-0x10]
00007FF5BD644C99    99  b802000000           movl rax,0000000000000002
00007FF5BD644C9E    9e  48bb90f8f83cf67f0000 REX.W movq rbx,00007FF63CF8F890
00007FF5BD644CA8    a8  e8e715ec7f           call 00007FF63D506294  (CEntry_Return1_ArgvOnStack_NoBuiltinExit)    ;; near builtin entry
00007FF5BD644CAD    ad  488b45a8             REX.W movq rax,[rbp-0x58]
00007FF5BD644CB1    b1  488b7db8             REX.W movq rdi,[rbp-0x48]
00007FF5BD644CB5    b5  488bd0               REX.W movq rdx,rax
00007FF5BD644CB8    b8  b802000000           movl rax,0000000000000002
00007FF5BD644CBD    bd  33db                 xorl rbx,rbx
00007FF5BD644CBF    bf  ff75b0               push [rbp-0x50]
00007FF5BD644CC2    c2  41ffb590010000       push [r13+0x190] (root (undefined_value))
00007FF5BD644CC9    c9  e846f9e27f           call 00007FF63D474614  (Construct_Baseline)    ;; near builtin entry
00007FF5BD644CCE    ce  488945b8             REX.W movq [rbp-0x48],rax
00007FF5BD644CD2    d2  488b4510             REX.W movq rax,[rbp+0x10]
00007FF5BD644CD6    d6  493b8598010000       REX.W cmpq rax,[r13+0x198] (root (the_hole_value))
00007FF5BD644CDD    dd  0f8416000000         jz 00007FF5BD644CF9  <+0xf9>
00007FF5BD644CE3    e3  488b75f8             REX.W movq rsi,[rbp-0x8]
00007FF5BD644CE7    e7  33c0                 xorl rax,rax
00007FF5BD644CE9    e9  48bbc0f9f83cf67f0000 REX.W movq rbx,00007FF63CF8F9C0
00007FF5BD644CF3    f3  e89c15ec7f           call 00007FF63D506294  (CEntry_Return1_ArgvOnStack_NoBuiltinExit)    ;; near builtin entry
00007FF5BD644CF8    f8  cc                   int3l
00007FF5BD644CF9    f9  4c8b45b8             REX.W movq r8,[rbp-0x48]
00007FF5BD644CFD    fd  4c894510             REX.W movq [rbp+0x10],r8
00007FF5BD644D01   101  488b4510             REX.W movq rax,[rbp+0x10]
00007FF5BD644D05   105  493b8598010000       REX.W cmpq rax,[r13+0x198] (root (the_hole_value))
00007FF5BD644D0C   10c  0f8516000000         jnz 00007FF5BD644D28  <+0x128>
00007FF5BD644D12   112  488b75f8             REX.W movq rsi,[rbp-0x8]
00007FF5BD644D16   116  33c0                 xorl rax,rax
00007FF5BD644D18   118  48bb70faf83cf67f0000 REX.W movq rbx,00007FF63CF8FA70
00007FF5BD644D22   122  e86d15ec7f           call 00007FF63D506294  (CEntry_Return1_ArgvOnStack_NoBuiltinExit)    ;; near builtin entry
00007FF5BD644D27   127  cc                   int3l
00007FF5BD644D28   128  bb02000000           movl rbx,0000000000000002
00007FF5BD644D2D   12d  48c7c1d5ffffff       REX.W movq rcx,0xffffffd5
00007FF5BD644D34   134  e9db38e37f           jmp 00007FF63D478614  (BaselineLeaveFrame)    ;; near builtin entry
00007FF5BD644D39   139  cc                   int3l
00007FF5BD644D3A   13a  cc                   int3l
00007FF5BD644D3B   13b  cc                   int3l


RelocInfo (size = 17)
00007FF5BD644C07  full embedded object  (0x0123bee75831 <BytecodeArray[43]>)
00007FF5BD644C10  near builtin entry
00007FF5BD644C32  near builtin entry
00007FF5BD644CA9  near builtin entry
00007FF5BD644CCA  near builtin entry
00007FF5BD644CF4  near builtin entry
00007FF5BD644D23  near builtin entry
00007FF5BD644D35  near builtin entry

000003F7CA6CE361: [Code] in OldSpace
 - map: 0x036663f01019 <Map[88](CODE_TYPE)>
 - kind: BASELINE
 - instruction_stream: 0x7ff5bd644d71 <InstructionStream BASELINE>
 - code_entry_point: 00007FF5BD644D80
 - kind_specific_flags: 0
00007FF5BD644D71: [InstructionStream]
 - map: 0x036663f00951 <Map(INSTRUCTION_STREAM_TYPE)>
 - code: 0x03f7ca6ce361 <Code BASELINE>kind = BASELINE
compiler = baseline
address = 000003F7CA6CE361

Instructions (size = 3028)
00007FF5BD644D80     0  bb88000000           movl rbx,0000000000000088
00007FF5BD644D85     5  49bc29246ccaf7030000 REX.W movq r12,000003F7CA6C2429    ;; object: 0x03f7ca6c2429 <BytecodeArray[444]>
00007FF5BD644D8F     f  e80036e37f           call 00007FF63D478394  (BaselineOutOfLinePrologue)    ;; near builtin entry
00007FF5BD644D94    14  50                   push rax
00007FF5BD644D95    15  50                   push rax
00007FF5BD644D96    16  50                   push rax
00007FF5BD644D97    17  50                   push rax
00007FF5BD644D98    18  50                   push rax
00007FF5BD644D99    19  50                   push rax
00007FF5BD644D9A    1a  50                   push rax
00007FF5BD644D9B    1b  50                   push rax
00007FF5BD644D9C    1c  50                   push rax
00007FF5BD644D9D    1d  50                   push rax
00007FF5BD644D9E    1e  50                   push rax
00007FF5BD644D9F    1f  50                   push rax
00007FF5BD644DA0    20  50                   push rax
00007FF5BD644DA1    21  48b80107f06366030000 REX.W movq rax,0000036663F00701    ;; object: 0x036663f00701 <String[0]: #>
00007FF5BD644DAB    2b  488945d0             REX.W movq [rbp-0x30],rax
00007FF5BD644DAF    2f  33c0                 xorl rax,rax
00007FF5BD644DB1    31  488945c8             REX.W movq [rbp-0x38],rax
00007FF5BD644DB5    35  48b800000000ffffffff REX.W movq rax,FFFFFFFF00000000
00007FF5BD644DBF    3f  488945c0             REX.W movq [rbp-0x40],rax
00007FF5BD644DC3    43  33c0                 xorl rax,rax
00007FF5BD644DC5    45  488945b8             REX.W movq [rbp-0x48],rax
00007FF5BD644DC9    49  33c0                 xorl rax,rax
00007FF5BD644DCB    4b  488945b0             REX.W movq [rbp-0x50],rax
00007FF5BD644DCF    4f  33c0                 xorl rax,rax
00007FF5BD644DD1    51  488945a8             REX.W movq [rbp-0x58],rax
00007FF5BD644DD5    55  488b5518             REX.W movq rdx,[rbp+0x18]
00007FF5BD644DD9    59  48b99147f06366030000 REX.W movq rcx,0000036663F04791    ;; object: 0x036663f04791 <String[6]: #length>
00007FF5BD644DE3    63  33c0                 xorl rax,rax
00007FF5BD644DE5    65  e8aa25e77f           call 00007FF63D4B7394  (LoadICBaseline)    ;; near builtin entry
00007FF5BD644DEA    6a  488b55a8             REX.W movq rdx,[rbp-0x58]
00007FF5BD644DEE    6e  bb02000000           movl rbx,0000000000000002
00007FF5BD644DF3    73  e8dcb4e97f           call 00007FF63D4E02D4  (LessThanOrEqual_Baseline)    ;; near builtin entry
00007FF5BD644DF8    78  493b85b0010000       REX.W cmpq rax,[r13+0x1b0] (root (false_value))
00007FF5BD644DFF    7f  7515                 jnz 00007FF5BD644E16  <+0x96>
00007FF5BD644E01    81  4c8b45f0             REX.W movq r8,[rbp-0x10]
00007FF5BD644E05    85  4d8b4027             REX.W movq r8,[r8+0x27]
00007FF5BD644E09    89  4181400fa2010000     addl [r8+0xf],0x1a2
00007FF5BD644E11    91  e9270b0000           jmp 00007FF5BD64593D  <+0xbbd>
00007FF5BD644E16    96  488b5518             REX.W movq rdx,[rbp+0x18]
00007FF5BD644E1A    9a  48b99147f06366030000 REX.W movq rcx,0000036663F04791    ;; object: 0x036663f04791 <String[6]: #length>
00007FF5BD644E24    a4  33c0                 xorl rax,rax
00007FF5BD644E26    a6  e86925e77f           call 00007FF63D4B7394  (LoadICBaseline)    ;; near builtin entry
00007FF5BD644E2B    ab  488b55a8             REX.W movq rdx,[rbp-0x58]
00007FF5BD644E2F    af  bb03000000           movl rbx,0000000000000003
00007FF5BD644E34    b4  e81ba9e97f           call 00007FF63D4DF754  (LessThan_Baseline)    ;; near builtin entry
00007FF5BD644E39    b9  493b85b0010000       REX.W cmpq rax,[r13+0x1b0] (root (false_value))
00007FF5BD644E40    c0  7512                 jnz 00007FF5BD644E54  <+0xd4>
00007FF5BD644E42    c2  4c8b45f0             REX.W movq r8,[rbp-0x10]
00007FF5BD644E46    c6  4d8b4027             REX.W movq r8,[r8+0x27]
00007FF5BD644E4A    ca  4183400f0d           addl [r8+0xf],0xd
00007FF5BD644E4F    cf  e96f000000           jmp 00007FF5BD644EC3  <+0x143>
00007FF5BD644E54    d4  4c8b45f8             REX.W movq r8,[rbp-0x8]
00007FF5BD644E58    d8  498b4027             REX.W movq rax,[r8+0x27]
00007FF5BD644E5C    dc  493b8598010000       REX.W cmpq rax,[r13+0x198] (root (the_hole_value))
00007FF5BD644E63    e3  0f8525000000         jnz 00007FF5BD644E8E  <+0x10e>
00007FF5BD644E69    e9  488b75f8             REX.W movq rsi,[rbp-0x8]
00007FF5BD644E6D    ed  49baf967e4be23010000 REX.W movq r10,00000123BEE467F9    ;; object: 0x0123bee467f9 <String[25]: #StringPrototypeCharCodeAt>
00007FF5BD644E77    f7  4152                 push r10
00007FF5BD644E79    f9  b801000000           movl rax,0000000000000001
00007FF5BD644E7E    fe  48bb5038f83cf67f0000 REX.W movq rbx,00007FF63CF83850
00007FF5BD644E88   108  e80714ec7f           call 00007FF63D506294  (CEntry_Return1_ArgvOnStack_NoBuiltinExit)    ;; near builtin entry
00007FF5BD644E8D   10d  cc                   int3l
00007FF5BD644E8E   10e  48894598             REX.W movq [rbp-0x68],rax
00007FF5BD644E92   112  488b4598             REX.W movq rax,[rbp-0x68]
00007FF5BD644E96   116  bb03040000           movl rbx,0000000000000403
00007FF5BD644E9B   11b  ff75a8               push [rbp-0x58]
00007FF5BD644E9E   11e  ff7518               push [rbp+0x18]
00007FF5BD644EA1   121  41ffb590010000       push [r13+0x190] (root (undefined_value))
00007FF5BD644EA8   128  e8278ce27f           call 00007FF63D46DAD4  (Call_ReceiverIsNullOrUndefined_Baseline_Compact)    ;; near builtin entry
00007FF5BD644EAD   12d  488945b0             REX.W movq [rbp-0x50],rax
00007FF5BD644EB1   131  4c8b45f0             REX.W movq r8,[rbp-0x10]
00007FF5BD644EB5   135  4d8b4027             REX.W movq r8,[r8+0x27]
00007FF5BD644EB9   139  4183400f0d           addl [r8+0xf],0xd
00007FF5BD644EBE   13e  e984000000           jmp 00007FF5BD644F47  <+0x1c7>
00007FF5BD644EC3   143  488b4530             REX.W movq rax,[rbp+0x30]
00007FF5BD644EC7   147  bb02060000           movl rbx,0000000000000602
00007FF5BD644ECC   14c  ff75b0               push [rbp-0x50]
00007FF5BD644ECF   14f  41ffb590010000       push [r13+0x190] (root (undefined_value))
00007FF5BD644ED6   156  e8f98be27f           call 00007FF63D46DAD4  (Call_ReceiverIsNullOrUndefined_Baseline_Compact)    ;; near builtin entry
00007FF5BD644EDB   15b  e87466f07f           call 00007FF63D54B554  (ToBooleanForBaselineJump)    ;; near builtin entry
00007FF5BD644EE0   160  4885d2               REX.W testq rdx,rdx
00007FF5BD644EE3   163  7512                 jnz 00007FF5BD644EF7  <+0x177>
00007FF5BD644EE5   165  4c8b45f0             REX.W movq r8,[rbp-0x10]
00007FF5BD644EE9   169  4d8b4027             REX.W movq r8,[r8+0x27]
00007FF5BD644EED   16d  4183400f02           addl [r8+0xf],0x2
00007FF5BD644EF2   172  e915000000           jmp 00007FF5BD644F0C  <+0x18c>
00007FF5BD644EF7   177  4c8b45f0             REX.W movq r8,[rbp-0x10]
00007FF5BD644EFB   17b  4d8b4027             REX.W movq r8,[r8+0x27]
00007FF5BD644EFF   17f  4181400f84010000     addl [r8+0xf],0x184
00007FF5BD644F07   187  e9310a0000           jmp 00007FF5BD64593D  <+0xbbd>
00007FF5BD644F0C   18c  4c8b45f8             REX.W movq r8,[rbp-0x8]
00007FF5BD644F10   190  498b407f             REX.W movq rax,[r8+0x7f]
00007FF5BD644F14   194  493b8598010000       REX.W cmpq rax,[r13+0x198] (root (the_hole_value))
00007FF5BD644F1B   19b  0f8522000000         jnz 00007FF5BD644F43  <+0x1c3>
00007FF5BD644F21   1a1  488b75f8             REX.W movq rsi,[rbp-0x8]
00007FF5BD644F25   1a5  49ba69aee4be23010000 REX.W movq r10,00000123BEE4AE69    ;; object: 0x0123bee4ae69 <String[18]: #CHAR_FORWARD_SLASH>
00007FF5BD644F2F   1af  4152                 push r10
00007FF5BD644F31   1b1  b801000000           movl rax,0000000000000001
00007FF5BD644F36   1b6  488b1d43ffffff       REX.W movq rbx,[rip+0xffffff43]
00007FF5BD644F3D   1bd  e85213ec7f           call 00007FF63D506294  (CEntry_Return1_ArgvOnStack_NoBuiltinExit)    ;; near builtin entry
00007FF5BD644F42   1c2  cc                   int3l
00007FF5BD644F43   1c3  488945b0             REX.W movq [rbp-0x50],rax
00007FF5BD644F47   1c7  488b4530             REX.W movq rax,[rbp+0x30]
00007FF5BD644F4B   1cb  bb02080000           movl rbx,0000000000000802
00007FF5BD644F50   1d0  ff75b0               push [rbp-0x50]
00007FF5BD644F53   1d3  41ffb590010000       push [r13+0x190] (root (undefined_value))
00007FF5BD644F5A   1da  e8758be27f           call 00007FF63D46DAD4  (Call_ReceiverIsNullOrUndefined_Baseline_Compact)    ;; near builtin entry
00007FF5BD644F5F   1df  e8f065f07f           call 00007FF63D54B554  (ToBooleanForBaselineJump)    ;; near builtin entry
00007FF5BD644F64   1e4  4885d2               REX.W testq rdx,rdx
00007FF5BD644F67   1e7  7515                 jnz 00007FF5BD644F7E  <+0x1fe>
00007FF5BD644F69   1e9  4c8b45f0             REX.W movq r8,[rbp-0x10]
00007FF5BD644F6D   1ed  4d8b4027             REX.W movq r8,[r8+0x27]
00007FF5BD644F71   1f1  4181400f52010000     addl [r8+0xf],0x152
00007FF5BD644F79   1f9  e96c080000           jmp 00007FF5BD6457EA  <+0xa6a>
00007FF5BD644F7E   1fe  488b45a8             REX.W movq rax,[rbp-0x58]
00007FF5BD644F82   202  48ba0000000001000000 REX.W movq rdx,0000000100000000
00007FF5BD644F8C   20c  bb0a000000           movl rbx,000000000000000A
00007FF5BD644F91   211  e87e0be97f           call 00007FF63D4D5B14  (SubtractSmi_Baseline)    ;; near builtin entry
00007FF5BD644F96   216  488b55c0             REX.W movq rdx,[rbp-0x40]
00007FF5BD644F9A   21a  bb0b000000           movl rbx,000000000000000B
00007FF5BD644F9F   21f  e8f0a2e97f           call 00007FF63D4DF294  (StrictEqual_Baseline)    ;; near builtin entry
00007FF5BD644FA4   224  493b85a8010000       REX.W cmpq rax,[r13+0x1a8] (root (true_value))
00007FF5BD644FAB   22b  7512                 jnz 00007FF5BD644FBF  <+0x23f>
00007FF5BD644FAD   22d  4c8b45f0             REX.W movq r8,[rbp-0x10]
00007FF5BD644FB1   231  4d8b4027             REX.W movq r8,[r8+0x27]
00007FF5BD644FB5   235  4183400f07           addl [r8+0xf],0x7
00007FF5BD644FBA   23a  e930000000           jmp 00007FF5BD644FEF  <+0x26f>
00007FF5BD644FBF   23f  488b05beffffff       REX.W movq rax,[rip+0xffffffbe]
00007FF5BD644FC6   246  488b55b8             REX.W movq rdx,[rbp-0x48]
00007FF5BD644FCA   24a  bb0c000000           movl rbx,000000000000000C
00007FF5BD644FCF   24f  e8c0a2e97f           call 00007FF63D4DF294  (StrictEqual_Baseline)    ;; near builtin entry
00007FF5BD644FD4   254  493b85b0010000       REX.W cmpq rax,[r13+0x1b0] (root (false_value))
00007FF5BD644FDB   25b  7512                 jnz 00007FF5BD644FEF  <+0x26f>
00007FF5BD644FDD   25d  4c8b45f0             REX.W movq r8,[rbp-0x10]
00007FF5BD644FE1   261  4d8b4027             REX.W movq r8,[r8+0x27]
00007FF5BD644FE5   265  4183400f02           addl [r8+0xf],0x2
00007FF5BD644FEA   26a  e915000000           jmp 00007FF5BD645004  <+0x284>
00007FF5BD644FEF   26f  4c8b45f0             REX.W movq r8,[rbp-0x10]
00007FF5BD644FF3   273  4d8b4027             REX.W movq r8,[r8+0x27]
00007FF5BD644FF7   277  4181400f38010000     addl [r8+0xf],0x138
00007FF5BD644FFF   27f  e9c6070000           jmp 00007FF5BD6457CA  <+0xa4a>
00007FF5BD645004   284  48b80000000002000000 REX.W movq rax,0000000200000000
00007FF5BD64500E   28e  488b55b8             REX.W movq rdx,[rbp-0x48]
00007FF5BD645012   292  bb0d000000           movl rbx,000000000000000D
00007FF5BD645017   297  e878a2e97f           call 00007FF63D4DF294  (StrictEqual_Baseline)    ;; near builtin entry
00007FF5BD64501C   29c  493b85b0010000       REX.W cmpq rax,[r13+0x1b0] (root (false_value))
00007FF5BD645023   2a3  7515                 jnz 00007FF5BD64503A  <+0x2ba>
00007FF5BD645025   2a5  4c8b45f0             REX.W movq r8,[rbp-0x10]
00007FF5BD645029   2a9  4d8b4027             REX.W movq r8,[r8+0x27]
00007FF5BD64502D   2ad  4181400fdf000000     addl [r8+0xf],0xdf
00007FF5BD645035   2b5  e9bd050000           jmp 00007FF5BD6455F7  <+0x877>
00007FF5BD64503A   2ba  488b55d0             REX.W movq rdx,[rbp-0x30]
00007FF5BD64503E   2be  48b99147f06366030000 REX.W movq rcx,0000036663F04791    ;; object: 0x036663f04791 <String[6]: #length>
00007FF5BD645048   2c8  33c0                 xorl rax,rax
00007FF5BD64504A   2ca  e84523e77f           call 00007FF63D4B7394  (LoadICBaseline)    ;; near builtin entry
00007FF5BD64504F   2cf  48894598             REX.W movq [rbp-0x68],rax
00007FF5BD645053   2d3  488b05acffffff       REX.W movq rax,[rip+0xffffffac]
00007FF5BD64505A   2da  488b5598             REX.W movq rdx,[rbp-0x68]
00007FF5BD64505E   2de  bb0e000000           movl rbx,000000000000000E
00007FF5BD645063   2e3  e8eca6e97f           call 00007FF63D4DF754  (LessThan_Baseline)    ;; near builtin entry
00007FF5BD645068   2e8  493b85a8010000       REX.W cmpq rax,[r13+0x1a8] (root (true_value))
00007FF5BD64506F   2ef  7512                 jnz 00007FF5BD645083  <+0x303>
00007FF5BD645071   2f1  4c8b45f0             REX.W movq r8,[rbp-0x10]
00007FF5BD645075   2f5  4d8b4027             REX.W movq r8,[r8+0x27]
00007FF5BD645079   2f9  4183400f3f           addl [r8+0xf],0x3f
00007FF5BD64507E   2fe  e9f8010000           jmp 00007FF5BD64527B  <+0x4fb>
00007FF5BD645083   303  488b057cffffff       REX.W movq rax,[rip+0xffffff7c]
00007FF5BD64508A   30a  488b55c8             REX.W movq rdx,[rbp-0x38]
00007FF5BD64508E   30e  bb0f000000           movl rbx,000000000000000F
00007FF5BD645093   313  e8fca1e97f           call 00007FF63D4DF294  (StrictEqual_Baseline)    ;; near builtin entry
00007FF5BD645098   318  493b85b0010000       REX.W cmpq rax,[r13+0x1b0] (root (false_value))
00007FF5BD64509F   31f  7512                 jnz 00007FF5BD6450B3  <+0x333>
00007FF5BD6450A1   321  4c8b45f0             REX.W movq r8,[rbp-0x10]
00007FF5BD6450A5   325  4d8b4027             REX.W movq r8,[r8+0x27]
00007FF5BD6450A9   329  4183400f38           addl [r8+0xf],0x38
00007FF5BD6450AE   32e  e9c8010000           jmp 00007FF5BD64527B  <+0x4fb>
00007FF5BD6450B3   333  4c8b45f8             REX.W movq r8,[rbp-0x8]
00007FF5BD6450B7   337  498b4027             REX.W movq rax,[r8+0x27]
00007FF5BD6450BB   33b  493b8598010000       REX.W cmpq rax,[r13+0x198] (root (the_hole_value))
00007FF5BD6450C2   342  0f8522000000         jnz 00007FF5BD6450EA  <+0x36a>
00007FF5BD6450C8   348  488b75f8             REX.W movq rsi,[rbp-0x8]
00007FF5BD6450CC   34c  49baf967e4be23010000 REX.W movq r10,00000123BEE467F9    ;; object: 0x0123bee467f9 <String[25]: #StringPrototypeCharCodeAt>
00007FF5BD6450D6   356  4152                 push r10
00007FF5BD6450D8   358  b801000000           movl rax,0000000000000001
00007FF5BD6450DD   35d  488b1d9cfdffff       REX.W movq rbx,[rip+0xfffffd9c]
00007FF5BD6450E4   364  e8ab11ec7f           call 00007FF63D506294  (CEntry_Return1_ArgvOnStack_NoBuiltinExit)    ;; near builtin entry
00007FF5BD6450E9   369  cc                   int3l
00007FF5BD6450EA   36a  48894598             REX.W movq [rbp-0x68],rax
00007FF5BD6450EE   36e  488b55d0             REX.W movq rdx,[rbp-0x30]
00007FF5BD6450F2   372  48b99147f06366030000 REX.W movq rcx,0000036663F04791    ;; object: 0x036663f04791 <String[6]: #length>
00007FF5BD6450FC   37c  33c0                 xorl rax,rax
00007FF5BD6450FE   37e  e89122e77f           call 00007FF63D4B7394  (LoadICBaseline)    ;; near builtin entry
00007FF5BD645103   383  488b157afeffff       REX.W movq rdx,[rip+0xfffffe7a]
00007FF5BD64510A   38a  bb10000000           movl rbx,0000000000000010
00007FF5BD64510F   38f  e8000ae97f           call 00007FF63D4D5B14  (SubtractSmi_Baseline)    ;; near builtin entry
00007FF5BD645114   394  48894588             REX.W movq [rbp-0x78],rax
00007FF5BD645118   398  488b4598             REX.W movq rax,[rbp-0x68]
00007FF5BD64511C   39c  bb03110000           movl rbx,0000000000001103
00007FF5BD645121   3a1  ff7588               push [rbp-0x78]
00007FF5BD645124   3a4  ff75d0               push [rbp-0x30]
00007FF5BD645127   3a7  41ffb590010000       push [r13+0x190] (root (undefined_value))
00007FF5BD64512E   3ae  e8a189e27f           call 00007FF63D46DAD4  (Call_ReceiverIsNullOrUndefined_Baseline_Compact)    ;; near builtin entry
00007FF5BD645133   3b3  48894598             REX.W movq [rbp-0x68],rax
00007FF5BD645137   3b7  4c8b45f8             REX.W movq r8,[rbp-0x8]
00007FF5BD64513B   3bb  498b4077             REX.W movq rax,[r8+0x77]
00007FF5BD64513F   3bf  493b8598010000       REX.W cmpq rax,[r13+0x198] (root (the_hole_value))
00007FF5BD645146   3c6  0f8522000000         jnz 00007FF5BD64516E  <+0x3ee>
00007FF5BD64514C   3cc  488b75f8             REX.W movq rsi,[rbp-0x8]
00007FF5BD645150   3d0  49ba51aee4be23010000 REX.W movq r10,00000123BEE4AE51    ;; object: 0x0123bee4ae51 <String[8]: #CHAR_DOT>
00007FF5BD64515A   3da  4152                 push r10
00007FF5BD64515C   3dc  b801000000           movl rax,0000000000000001
00007FF5BD645161   3e1  488b1d18fdffff       REX.W movq rbx,[rip+0xfffffd18]
00007FF5BD645168   3e8  e82711ec7f           call 00007FF63D506294  (CEntry_Return1_ArgvOnStack_NoBuiltinExit)    ;; near builtin entry
00007FF5BD64516D   3ed  cc                   int3l
00007FF5BD64516E   3ee  488b5598             REX.W movq rdx,[rbp-0x68]
00007FF5BD645172   3f2  bb13000000           movl rbx,0000000000000013
00007FF5BD645177   3f7  e818a1e97f           call 00007FF63D4DF294  (StrictEqual_Baseline)    ;; near builtin entry
00007FF5BD64517C   3fc  493b85b0010000       REX.W cmpq rax,[r13+0x1b0] (root (false_value))
00007FF5BD645183   403  7512                 jnz 00007FF5BD645197  <+0x417>
00007FF5BD645185   405  4c8b45f0             REX.W movq r8,[rbp-0x10]
00007FF5BD645189   409  4d8b4027             REX.W movq r8,[r8+0x27]
00007FF5BD64518D   40d  4183400f1c           addl [r8+0xf],0x1c
00007FF5BD645192   412  e9e4000000           jmp 00007FF5BD64527B  <+0x4fb>
00007FF5BD645197   417  4c8b45f8             REX.W movq r8,[rbp-0x8]
00007FF5BD64519B   41b  498b4027             REX.W movq rax,[r8+0x27]
00007FF5BD64519F   41f  493b8598010000       REX.W cmpq rax,[r13+0x198] (root (the_hole_value))
00007FF5BD6451A6   426  0f8522000000         jnz 00007FF5BD6451CE  <+0x44e>
00007FF5BD6451AC   42c  488b75f8             REX.W movq rsi,[rbp-0x8]
00007FF5BD6451B0   430  49baf967e4be23010000 REX.W movq r10,00000123BEE467F9    ;; object: 0x0123bee467f9 <String[25]: #StringPrototypeCharCodeAt>
00007FF5BD6451BA   43a  4152                 push r10
00007FF5BD6451BC   43c  b801000000           movl rax,0000000000000001
00007FF5BD6451C1   441  488b1db8fcffff       REX.W movq rbx,[rip+0xfffffcb8]
00007FF5BD6451C8   448  e8c710ec7f           call 00007FF63D506294  (CEntry_Return1_ArgvOnStack_NoBuiltinExit)    ;; near builtin entry
00007FF5BD6451CD   44d  cc                   int3l
00007FF5BD6451CE   44e  48894598             REX.W movq [rbp-0x68],rax
00007FF5BD6451D2   452  488b55d0             REX.W movq rdx,[rbp-0x30]
00007FF5BD6451D6   456  48b99147f06366030000 REX.W movq rcx,0000036663F04791    ;; object: 0x036663f04791 <String[6]: #length>
00007FF5BD6451E0   460  33c0                 xorl rax,rax
00007FF5BD6451E2   462  e8ad21e77f           call 00007FF63D4B7394  (LoadICBaseline)    ;; near builtin entry
00007FF5BD6451E7   467  488b1518feffff       REX.W movq rdx,[rip+0xfffffe18]
00007FF5BD6451EE   46e  bb14000000           movl rbx,0000000000000014
00007FF5BD6451F3   473  e81c09e97f           call 00007FF63D4D5B14  (SubtractSmi_Baseline)    ;; near builtin entry
00007FF5BD6451F8   478  48894588             REX.W movq [rbp-0x78],rax
00007FF5BD6451FC   47c  488b4598             REX.W movq rax,[rbp-0x68]
00007FF5BD645200   480  bb03150000           movl rbx,0000000000001503
00007FF5BD645205   485  ff7588               push [rbp-0x78]
00007FF5BD645208   488  ff75d0               push [rbp-0x30]
00007FF5BD64520B   48b  41ffb590010000       push [r13+0x190] (root (undefined_value))
00007FF5BD645212   492  e8bd88e27f           call 00007FF63D46DAD4  (Call_ReceiverIsNullOrUndefined_Baseline_Compact)    ;; near builtin entry
00007FF5BD645217   497  48894598             REX.W movq [rbp-0x68],rax
00007FF5BD64521B   49b  4c8b45f8             REX.W movq r8,[rbp-0x8]
00007FF5BD64521F   49f  498b4077             REX.W movq rax,[r8+0x77]
00007FF5BD645223   4a3  493b8598010000       REX.W cmpq rax,[r13+0x198] (root (the_hole_value))
00007FF5BD64522A   4aa  0f8522000000         jnz 00007FF5BD645252  <+0x4d2>
00007FF5BD645230   4b0  488b75f8             REX.W movq rsi,[rbp-0x8]
00007FF5BD645234   4b4  49ba51aee4be23010000 REX.W movq r10,00000123BEE4AE51    ;; object: 0x0123bee4ae51 <String[8]: #CHAR_DOT>
00007FF5BD64523E   4be  4152                 push r10
00007FF5BD645240   4c0  b801000000           movl rax,0000000000000001
00007FF5BD645245   4c5  488b1d34fcffff       REX.W movq rbx,[rip+0xfffffc34]
00007FF5BD64524C   4cc  e84310ec7f           call 00007FF63D506294  (CEntry_Return1_ArgvOnStack_NoBuiltinExit)    ;; near builtin entry
00007FF5BD645251   4d1  cc                   int3l
00007FF5BD645252   4d2  488b5598             REX.W movq rdx,[rbp-0x68]
00007FF5BD645256   4d6  bb17000000           movl rbx,0000000000000017
00007FF5BD64525B   4db  e834a0e97f           call 00007FF63D4DF294  (StrictEqual_Baseline)    ;; near builtin entry
00007FF5BD645260   4e0  493b85a8010000       REX.W cmpq rax,[r13+0x1a8] (root (true_value))
00007FF5BD645267   4e7  7512                 jnz 00007FF5BD64527B  <+0x4fb>
00007FF5BD645269   4e9  4c8b45f0             REX.W movq r8,[rbp-0x10]
00007FF5BD64526D   4ed  4d8b4027             REX.W movq r8,[r8+0x27]
00007FF5BD645271   4f1  4183400f6c           addl [r8+0xf],0x6c
00007FF5BD645276   4f6  e99c020000           jmp 00007FF5BD645517  <+0x797>
00007FF5BD64527B   4fb  488b55d0             REX.W movq rdx,[rbp-0x30]
00007FF5BD64527F   4ff  48b99147f06366030000 REX.W movq rcx,0000036663F04791    ;; object: 0x036663f04791 <String[6]: #length>
00007FF5BD645289   509  33c0                 xorl rax,rax
00007FF5BD64528B   50b  e80421e77f           call 00007FF63D4B7394  (LoadICBaseline)    ;; near builtin entry
00007FF5BD645290   510  48894598             REX.W movq [rbp-0x68],rax
00007FF5BD645294   514  488b056bfdffff       REX.W movq rax,[rip+0xfffffd6b]
00007FF5BD64529B   51b  488b5598             REX.W movq rdx,[rbp-0x68]
00007FF5BD64529F   51f  bb18000000           movl rbx,0000000000000018
00007FF5BD6452A4   524  e86baae97f           call 00007FF63D4DFD14  (GreaterThan_Baseline)    ;; near builtin entry
00007FF5BD6452A9   529  493b85b0010000       REX.W cmpq rax,[r13+0x1b0] (root (false_value))
00007FF5BD6452B0   530  7512                 jnz 00007FF5BD6452C4  <+0x544>
00007FF5BD6452B2   532  4c8b45f0             REX.W movq r8,[rbp-0x10]
00007FF5BD6452B6   536  4d8b4027             REX.W movq r8,[r8+0x27]
00007FF5BD6452BA   53a  4183400f49           addl [r8+0xf],0x49
00007FF5BD6452BF   53f  e9d8010000           jmp 00007FF5BD64549C  <+0x71c>
00007FF5BD6452C4   544  4c8b45f8             REX.W movq r8,[rbp-0x8]
00007FF5BD6452C8   548  498b4037             REX.W movq rax,[r8+0x37]
00007FF5BD6452CC   54c  493b8598010000       REX.W cmpq rax,[r13+0x198] (root (the_hole_value))
00007FF5BD6452D3   553  0f8522000000         jnz 00007FF5BD6452FB  <+0x57b>
00007FF5BD6452D9   559  488b75f8             REX.W movq rsi,[rbp-0x8]
00007FF5BD6452DD   55d  49bac173e4be23010000 REX.W movq r10,00000123BEE473C1    ;; object: 0x0123bee473c1 <String[26]: #StringPrototypeLastIndexOf>
00007FF5BD6452E7   567  4152                 push r10
00007FF5BD6452E9   569  b801000000           movl rax,0000000000000001
00007FF5BD6452EE   56e  488b1d8bfbffff       REX.W movq rbx,[rip+0xfffffb8b]
00007FF5BD6452F5   575  e89a0fec7f           call 00007FF63D506294  (CEntry_Return1_ArgvOnStack_NoBuiltinExit)    ;; near builtin entry
00007FF5BD6452FA   57a  cc                   int3l
00007FF5BD6452FB   57b  48894598             REX.W movq [rbp-0x68],rax
00007FF5BD6452FF   57f  488b4598             REX.W movq rax,[rbp-0x68]
00007FF5BD645303   583  bb03190000           movl rbx,0000000000001903
00007FF5BD645308   588  ff7528               push [rbp+0x28]
00007FF5BD64530B   58b  ff75d0               push [rbp-0x30]
00007FF5BD64530E   58e  41ffb590010000       push [r13+0x190] (root (undefined_value))
00007FF5BD645315   595  e8ba87e27f           call 00007FF63D46DAD4  (Call_ReceiverIsNullOrUndefined_Baseline_Compact)    ;; near builtin entry
00007FF5BD64531A   59a  488945a0             REX.W movq [rbp-0x60],rax
00007FF5BD64531E   59e  488b0592faffff       REX.W movq rax,[rip+0xfffffa92]
00007FF5BD645325   5a5  488b55a0             REX.W movq rdx,[rbp-0x60]
00007FF5BD645329   5a9  bb1b000000           movl rbx,000000000000001B
00007FF5BD64532E   5ae  e8619fe97f           call 00007FF63D4DF294  (StrictEqual_Baseline)    ;; near builtin entry
00007FF5BD645333   5b3  493b85b0010000       REX.W cmpq rax,[r13+0x1b0] (root (false_value))
00007FF5BD64533A   5ba  7512                 jnz 00007FF5BD64534E  <+0x5ce>
00007FF5BD64533C   5bc  4c8b45f0             REX.W movq r8,[rbp-0x10]
00007FF5BD645340   5c0  4d8b4027             REX.W movq r8,[r8+0x27]
00007FF5BD645344   5c4  4183400f07           addl [r8+0xf],0x7
00007FF5BD645349   5c9  e926000000           jmp 00007FF5BD645374  <+0x5f4>
00007FF5BD64534E   5ce  48b80107f06366030000 REX.W movq rax,0000036663F00701    ;; object: 0x036663f00701 <String[0]: #>
00007FF5BD645358   5d8  488945d0             REX.W movq [rbp-0x30],rax
00007FF5BD64535C   5dc  33c0                 xorl rax,rax
00007FF5BD64535E   5de  488945c8             REX.W movq [rbp-0x38],rax
00007FF5BD645362   5e2  4c8b45f0             REX.W movq r8,[rbp-0x10]
00007FF5BD645366   5e6  4d8b4027             REX.W movq r8,[r8+0x27]
00007FF5BD64536A   5ea  4183400f29           addl [r8+0xf],0x29
00007FF5BD64536F   5ef  e905010000           jmp 00007FF5BD645479  <+0x6f9>
00007FF5BD645374   5f4  4c8b45f8             REX.W movq r8,[rbp-0x8]
00007FF5BD645378   5f8  498b4047             REX.W movq rax,[r8+0x47]
00007FF5BD64537C   5fc  493b8598010000       REX.W cmpq rax,[r13+0x198] (root (the_hole_value))
00007FF5BD645383   603  0f8522000000         jnz 00007FF5BD6453AB  <+0x62b>
00007FF5BD645389   609  488b75f8             REX.W movq rsi,[rbp-0x8]
00007FF5BD64538D   60d  49ba4923e4be23010000 REX.W movq r10,00000123BEE42349    ;; object: 0x0123bee42349 <String[20]: #StringPrototypeSlice>
00007FF5BD645397   617  4152                 push r10
00007FF5BD645399   619  b801000000           movl rax,0000000000000001
00007FF5BD64539E   61e  488b1ddbfaffff       REX.W movq rbx,[rip+0xfffffadb]
00007FF5BD6453A5   625  e8ea0eec7f           call 00007FF63D506294  (CEntry_Return1_ArgvOnStack_NoBuiltinExit)    ;; near builtin entry
00007FF5BD6453AA   62a  cc                   int3l
00007FF5BD6453AB   62b  48894598             REX.W movq [rbp-0x68],rax
00007FF5BD6453AF   62f  33c0                 xorl rax,rax
00007FF5BD6453B1   631  48894588             REX.W movq [rbp-0x78],rax
00007FF5BD6453B5   635  4c8b45d0             REX.W movq r8,[rbp-0x30]
00007FF5BD6453B9   639  4c894590             REX.W movq [rbp-0x70],r8
00007FF5BD6453BD   63d  4c8b45a0             REX.W movq r8,[rbp-0x60]
00007FF5BD6453C1   641  4c894580             REX.W movq [rbp-0x80],r8
00007FF5BD6453C5   645  488b4598             REX.W movq rax,[rbp-0x68]
00007FF5BD6453C9   649  bb041c0000           movl rbx,0000000000001C04
00007FF5BD6453CE   64e  ff7580               push [rbp-0x80]
00007FF5BD6453D1   651  ff7588               push [rbp-0x78]
00007FF5BD6453D4   654  ff7590               push [rbp-0x70]
00007FF5BD6453D7   657  41ffb590010000       push [r13+0x190] (root (undefined_value))
00007FF5BD6453DE   65e  e8f186e27f           call 00007FF63D46DAD4  (Call_ReceiverIsNullOrUndefined_Baseline_Compact)    ;; near builtin entry
00007FF5BD6453E3   663  488945d0             REX.W movq [rbp-0x30],rax
00007FF5BD6453E7   667  488b55d0             REX.W movq rdx,[rbp-0x30]
00007FF5BD6453EB   66b  48b99147f06366030000 REX.W movq rcx,0000036663F04791    ;; object: 0x036663f04791 <String[6]: #length>
00007FF5BD6453F5   675  33c0                 xorl rax,rax
00007FF5BD6453F7   677  e8981fe77f           call 00007FF63D4B7394  (LoadICBaseline)    ;; near builtin entry
00007FF5BD6453FC   67c  488b1581fbffff       REX.W movq rdx,[rip+0xfffffb81]
00007FF5BD645403   683  bb1e000000           movl rbx,000000000000001E
00007FF5BD645408   688  e80707e97f           call 00007FF63D4D5B14  (SubtractSmi_Baseline)    ;; near builtin entry
00007FF5BD64540D   68d  48894598             REX.W movq [rbp-0x68],rax
00007FF5BD645411   691  4c8b45f8             REX.W movq r8,[rbp-0x8]
00007FF5BD645415   695  498b4037             REX.W movq rax,[r8+0x37]
00007FF5BD645419   699  493b8598010000       REX.W cmpq rax,[r13+0x198] (root (the_hole_value))
00007FF5BD645420   6a0  0f8522000000         jnz 00007FF5BD645448  <+0x6c8>
00007FF5BD645426   6a6  488b75f8             REX.W movq rsi,[rbp-0x8]
00007FF5BD64542A   6aa  49bac173e4be23010000 REX.W movq r10,00000123BEE473C1    ;; object: 0x0123bee473c1 <String[26]: #StringPrototypeLastIndexOf>
00007FF5BD645434   6b4  4152                 push r10
00007FF5BD645436   6b6  b801000000           movl rax,0000000000000001
00007FF5BD64543B   6bb  488b1d3efaffff       REX.W movq rbx,[rip+0xfffffa3e]
00007FF5BD645442   6c2  e84d0eec7f           call 00007FF63D506294  (CEntry_Return1_ArgvOnStack_NoBuiltinExit)    ;; near builtin entry
00007FF5BD645447   6c7  cc                   int3l
00007FF5BD645448   6c8  48894590             REX.W movq [rbp-0x70],rax
00007FF5BD64544C   6cc  488b4590             REX.W movq rax,[rbp-0x70]
00007FF5BD645450   6d0  bb031f0000           movl rbx,0000000000001F03
00007FF5BD645455   6d5  ff7528               push [rbp+0x28]
00007FF5BD645458   6d8  ff75d0               push [rbp-0x30]
00007FF5BD64545B   6db  41ffb590010000       push [r13+0x190] (root (undefined_value))
00007FF5BD645462   6e2  e86d86e27f           call 00007FF63D46DAD4  (Call_ReceiverIsNullOrUndefined_Baseline_Compact)    ;; near builtin entry
00007FF5BD645467   6e7  488b5598             REX.W movq rdx,[rbp-0x68]
00007FF5BD64546B   6eb  bb21000000           movl rbx,0000000000000021
00007FF5BD645470   6f0  e85f01e97f           call 00007FF63D4D55D4  (Subtract_Baseline)    ;; near builtin entry
00007FF5BD645475   6f5  488945c8             REX.W movq [rbp-0x38],rax
00007FF5BD645479   6f9  4c8b45a8             REX.W movq r8,[rbp-0x58]
00007FF5BD64547D   6fd  4c8945c0             REX.W movq [rbp-0x40],r8
00007FF5BD645481   701  33c0                 xorl rax,rax
00007FF5BD645483   703  488945b8             REX.W movq [rbp-0x48],rax
00007FF5BD645487   707  4c8b45f0             REX.W movq r8,[rbp-0x10]
00007FF5BD64548B   70b  4d8b4027             REX.W movq r8,[r8+0x27]
00007FF5BD64548F   70f  4181400fb2000000     addl [r8+0xf],0xb2
00007FF5BD645497   717  e90d040000           jmp 00007FF5BD6458A9  <+0xb29>
00007FF5BD64549C   71c  488b55d0             REX.W movq rdx,[rbp-0x30]
00007FF5BD6454A0   720  48b99147f06366030000 REX.W movq rcx,0000036663F04791    ;; object: 0x036663f04791 <String[6]: #length>
00007FF5BD6454AA   72a  33c0                 xorl rax,rax
00007FF5BD6454AC   72c  e8e31ee77f           call 00007FF63D4B7394  (LoadICBaseline)    ;; near builtin entry
00007FF5BD6454B1   731  48894598             REX.W movq [rbp-0x68],rax
00007FF5BD6454B5   735  33c0                 xorl rax,rax
00007FF5BD6454B7   737  488b5598             REX.W movq rdx,[rbp-0x68]
00007FF5BD6454BB   73b  bb22000000           movl rbx,0000000000000022
00007FF5BD6454C0   740  e8cf9de97f           call 00007FF63D4DF294  (StrictEqual_Baseline)    ;; near builtin entry
00007FF5BD6454C5   745  493b85a8010000       REX.W cmpq rax,[r13+0x1a8] (root (true_value))
00007FF5BD6454CC   74c  7512                 jnz 00007FF5BD6454E0  <+0x760>
00007FF5BD6454CE   74e  4c8b45f0             REX.W movq r8,[rbp-0x10]
00007FF5BD6454D2   752  4d8b4027             REX.W movq r8,[r8+0x27]
00007FF5BD6454D6   756  4183400f0c           addl [r8+0xf],0xc
00007FF5BD6454DB   75b  e937000000           jmp 00007FF5BD645517  <+0x797>
00007FF5BD6454E0   760  48b80107f06366030000 REX.W movq rax,0000036663F00701    ;; object: 0x036663f00701 <String[0]: #>
00007FF5BD6454EA   76a  488945d0             REX.W movq [rbp-0x30],rax
00007FF5BD6454EE   76e  33c0                 xorl rax,rax
00007FF5BD6454F0   770  488945c8             REX.W movq [rbp-0x38],rax
00007FF5BD6454F4   774  4c8b45a8             REX.W movq r8,[rbp-0x58]
00007FF5BD6454F8   778  4c8945c0             REX.W movq [rbp-0x40],r8
00007FF5BD6454FC   77c  33c0                 xorl rax,rax
00007FF5BD6454FE   77e  488945b8             REX.W movq [rbp-0x48],rax
00007FF5BD645502   782  4c8b45f0             REX.W movq r8,[rbp-0x10]
00007FF5BD645506   786  4d8b4027             REX.W movq r8,[r8+0x27]
00007FF5BD64550A   78a  4181400f9b000000     addl [r8+0xf],0x9b
00007FF5BD645512   792  e992030000           jmp 00007FF5BD6458A9  <+0xb29>
00007FF5BD645517   797  488b4520             REX.W movq rax,[rbp+0x20]
00007FF5BD64551B   79b  e83460f07f           call 00007FF63D54B554  (ToBooleanForBaselineJump)    ;; near builtin entry
00007FF5BD645520   7a0  4885d2               REX.W testq rdx,rdx
00007FF5BD645523   7a3  7512                 jnz 00007FF5BD645537  <+0x7b7>
00007FF5BD645525   7a5  4c8b45f0             REX.W movq r8,[rbp-0x10]
00007FF5BD645529   7a9  4d8b4027             REX.W movq r8,[r8+0x27]
00007FF5BD64552D   7ad  4183400f22           addl [r8+0xf],0x22
00007FF5BD645532   7b2  e9ae000000           jmp 00007FF5BD6455E5  <+0x865>
00007FF5BD645537   7b7  488b55d0             REX.W movq rdx,[rbp-0x30]
00007FF5BD64553B   7bb  48b99147f06366030000 REX.W movq rcx,0000036663F04791    ;; object: 0x036663f04791 <String[6]: #length>
00007FF5BD645545   7c5  33c0                 xorl rax,rax
00007FF5BD645547   7c7  e8481ee77f           call 00007FF63D4B7394  (LoadICBaseline)    ;; near builtin entry
00007FF5BD64554C   7cc  48894590             REX.W movq [rbp-0x70],rax
00007FF5BD645550   7d0  33c0                 xorl rax,rax
00007FF5BD645552   7d2  488b5590             REX.W movq rdx,[rbp-0x70]
00007FF5BD645556   7d6  bb24000000           movl rbx,0000000000000024
00007FF5BD64555B   7db  e8b4a7e97f           call 00007FF63D4DFD14  (GreaterThan_Baseline)    ;; near builtin entry
00007FF5BD645560   7e0  4c8b45d0             REX.W movq r8,[rbp-0x30]
00007FF5BD645564   7e4  4c894598             REX.W movq [rbp-0x68],r8
00007FF5BD645568   7e8  493b85b0010000       REX.W cmpq rax,[r13+0x1b0] (root (false_value))
00007FF5BD64556F   7ef  7512                 jnz 00007FF5BD645583  <+0x803>
00007FF5BD645571   7f1  4c8b45f0             REX.W movq r8,[rbp-0x10]
00007FF5BD645575   7f5  4d8b4027             REX.W movq r8,[r8+0x27]
00007FF5BD645579   7f9  4183400f0b           addl [r8+0xf],0xb
00007FF5BD64557E   7fe  e93b000000           jmp 00007FF5BD6455BE  <+0x83e>
00007FF5BD645583   803  488b4528             REX.W movq rax,[rbp+0x28]
00007FF5BD645587   807  488b75f8             REX.W movq rsi,[rbp-0x8]
00007FF5BD64558B   80b  e8440bf07f           call 00007FF63D5460D4  (ToString)    ;; near builtin entry
00007FF5BD645590   810  48894590             REX.W movq [rbp-0x70],rax
00007FF5BD645594   814  48b851236ccaf7030000 REX.W movq rax,000003F7CA6C2351    ;; object: 0x03f7ca6c2351 <String[2]: #..>
00007FF5BD64559E   81e  488b5590             REX.W movq rdx,[rbp-0x70]
00007FF5BD6455A2   822  bb25000000           movl rbx,0000000000000025
00007FF5BD6455A7   827  e868f6e87f           call 00007FF63D4D4C14  (Add_Baseline)    ;; near builtin entry
00007FF5BD6455AC   82c  4c8b45f0             REX.W movq r8,[rbp-0x10]
00007FF5BD6455B0   830  4d8b4027             REX.W movq r8,[r8+0x27]
00007FF5BD6455B4   834  4183400f02           addl [r8+0xf],0x2
00007FF5BD6455B9   839  e90a000000           jmp 00007FF5BD6455C8  <+0x848>
00007FF5BD6455BE   83e  48b851236ccaf7030000 REX.W movq rax,000003F7CA6C2351    ;; object: 0x03f7ca6c2351 <String[2]: #..>
00007FF5BD6455C8   848  488b5598             REX.W movq rdx,[rbp-0x68]
00007FF5BD6455CC   84c  bb23000000           movl rbx,0000000000000023
00007FF5BD6455D1   851  e83ef6e87f           call 00007FF63D4D4C14  (Add_Baseline)    ;; near builtin entry
00007FF5BD6455D6   856  488945d0             REX.W movq [rbp-0x30],rax
00007FF5BD6455DA   85a  488b0525faffff       REX.W movq rax,[rip+0xfffffa25]
00007FF5BD6455E1   861  488945c8             REX.W movq [rbp-0x38],rax
00007FF5BD6455E5   865  4c8b45f0             REX.W movq r8,[rbp-0x10]
00007FF5BD6455E9   869  4d8b4027             REX.W movq r8,[r8+0x27]
00007FF5BD6455ED   86d  4183400f52           addl [r8+0xf],0x52
00007FF5BD6455F2   872  e9d3010000           jmp 00007FF5BD6457CA  <+0xa4a>
00007FF5BD6455F7   877  488b55d0             REX.W movq rdx,[rbp-0x30]
00007FF5BD6455FB   87b  48b99147f06366030000 REX.W movq rcx,0000036663F04791    ;; object: 0x036663f04791 <String[6]: #length>
00007FF5BD645605   885  33c0                 xorl rax,rax
00007FF5BD645607   887  e8881de77f           call 00007FF63D4B7394  (LoadICBaseline)    ;; near builtin entry
00007FF5BD64560C   88c  48894598             REX.W movq [rbp-0x68],rax
00007FF5BD645610   890  33c0                 xorl rax,rax
00007FF5BD645612   892  488b5598             REX.W movq rdx,[rbp-0x68]
00007FF5BD645616   896  bb26000000           movl rbx,0000000000000026
00007FF5BD64561B   89b  e8f4a6e97f           call 00007FF63D4DFD14  (GreaterThan_Baseline)    ;; near builtin entry
00007FF5BD645620   8a0  493b85b0010000       REX.W cmpq rax,[r13+0x1b0] (root (false_value))
00007FF5BD645627   8a7  7512                 jnz 00007FF5BD64563B  <+0x8bb>
00007FF5BD645629   8a9  4c8b45f0             REX.W movq r8,[rbp-0x10]
00007FF5BD64562D   8ad  4d8b4027             REX.W movq r8,[r8+0x27]
00007FF5BD645631   8b1  4183400f27           addl [r8+0xf],0x27
00007FF5BD645636   8b6  e9e2000000           jmp 00007FF5BD64571D  <+0x99d>
00007FF5BD64563B   8bb  488b4528             REX.W movq rax,[rbp+0x28]
00007FF5BD64563F   8bf  488b75f8             REX.W movq rsi,[rbp-0x8]
00007FF5BD645643   8c3  e88c0af07f           call 00007FF63D5460D4  (ToString)    ;; near builtin entry
00007FF5BD645648   8c8  48894590             REX.W movq [rbp-0x70],rax
00007FF5BD64564C   8cc  4c8b45f8             REX.W movq r8,[rbp-0x8]
00007FF5BD645650   8d0  498b4047             REX.W movq rax,[r8+0x47]
00007FF5BD645654   8d4  493b8598010000       REX.W cmpq rax,[r13+0x198] (root (the_hole_value))
00007FF5BD64565B   8db  0f8522000000         jnz 00007FF5BD645683  <+0x903>
00007FF5BD645661   8e1  488b75f8             REX.W movq rsi,[rbp-0x8]
00007FF5BD645665   8e5  49ba4923e4be23010000 REX.W movq r10,00000123BEE42349    ;; object: 0x0123bee42349 <String[20]: #StringPrototypeSlice>
00007FF5BD64566F   8ef  4152                 push r10
00007FF5BD645671   8f1  b801000000           movl rax,0000000000000001
00007FF5BD645676   8f6  488b1d03f8ffff       REX.W movq rbx,[rip+0xfffff803]
00007FF5BD64567D   8fd  e8120cec7f           call 00007FF63D506294  (CEntry_Return1_ArgvOnStack_NoBuiltinExit)    ;; near builtin entry
00007FF5BD645682   902  cc                   int3l
00007FF5BD645683   903  48894588             REX.W movq [rbp-0x78],rax
00007FF5BD645687   907  488b45c0             REX.W movq rax,[rbp-0x40]
00007FF5BD64568B   90b  488b15f2f8ffff       REX.W movq rdx,[rip+0xfffff8f2]
00007FF5BD645692   912  bb29000000           movl rbx,0000000000000029
00007FF5BD645697   917  e8f8fae87f           call 00007FF63D4D5194  (AddSmi_Baseline)    ;; near builtin entry
00007FF5BD64569C   91c  48898578ffffff       REX.W movq [rbp-0x88],rax
00007FF5BD6456A3   923  4c8b4518             REX.W movq r8,[rbp+0x18]
00007FF5BD6456A7   927  4c894580             REX.W movq [rbp-0x80],r8
00007FF5BD6456AB   92b  4c8b45a8             REX.W movq r8,[rbp-0x58]
00007FF5BD6456AF   92f  4c898570ffffff       REX.W movq [rbp-0x90],r8
00007FF5BD6456B6   936  488b4588             REX.W movq rax,[rbp-0x78]
00007FF5BD6456BA   93a  bb042a0000           movl rbx,0000000000002A04
00007FF5BD6456BF   93f  ffb570ffffff         push [rbp-0x90]
00007FF5BD6456C5   945  ffb578ffffff         push [rbp-0x88]
00007FF5BD6456CB   94b  ff7580               push [rbp-0x80]
00007FF5BD6456CE   94e  41ffb590010000       push [r13+0x190] (root (undefined_value))
00007FF5BD6456D5   955  e8fa83e27f           call 00007FF63D46DAD4  (Call_ReceiverIsNullOrUndefined_Baseline_Compact)    ;; near builtin entry
00007FF5BD6456DA   95a  488b75f8             REX.W movq rsi,[rbp-0x8]
00007FF5BD6456DE   95e  e8f109f07f           call 00007FF63D5460D4  (ToString)    ;; near builtin entry
00007FF5BD6456E3   963  488b5590             REX.W movq rdx,[rbp-0x70]
00007FF5BD6456E7   967  bb28000000           movl rbx,0000000000000028
00007FF5BD6456EC   96c  e823f5e87f           call 00007FF63D4D4C14  (Add_Baseline)    ;; near builtin entry
00007FF5BD6456F1   971  488b55d0             REX.W movq rdx,[rbp-0x30]
00007FF5BD6456F5   975  bb27000000           movl rbx,0000000000000027
00007FF5BD6456FA   97a  e815f5e87f           call 00007FF63D4D4C14  (Add_Baseline)    ;; near builtin entry
00007FF5BD6456FF   97f  4c8b45d0             REX.W movq r8,[rbp-0x30]
00007FF5BD645703   983  4c894598             REX.W movq [rbp-0x68],r8
00007FF5BD645707   987  488945d0             REX.W movq [rbp-0x30],rax
00007FF5BD64570B   98b  4c8b45f0             REX.W movq r8,[rbp-0x10]
00007FF5BD64570F   98f  4d8b4027             REX.W movq r8,[r8+0x27]
00007FF5BD645713   993  4183400f17           addl [r8+0xf],0x17
00007FF5BD645718   998  e986000000           jmp 00007FF5BD6457A3  <+0xa23>
00007FF5BD64571D   99d  4c8b45f8             REX.W movq r8,[rbp-0x8]
00007FF5BD645721   9a1  498b4047             REX.W movq rax,[r8+0x47]
00007FF5BD645725   9a5  493b8598010000       REX.W cmpq rax,[r13+0x198] (root (the_hole_value))
00007FF5BD64572C   9ac  0f8522000000         jnz 00007FF5BD645754  <+0x9d4>
00007FF5BD645732   9b2  488b75f8             REX.W movq rsi,[rbp-0x8]
00007FF5BD645736   9b6  49ba4923e4be23010000 REX.W movq r10,00000123BEE42349    ;; object: 0x0123bee42349 <String[20]: #StringPrototypeSlice>
00007FF5BD645740   9c0  4152                 push r10
00007FF5BD645742   9c2  b801000000           movl rax,0000000000000001
00007FF5BD645747   9c7  488b1d32f7ffff       REX.W movq rbx,[rip+0xfffff732]
00007FF5BD64574E   9ce  e8410bec7f           call 00007FF63D506294  (CEntry_Return1_ArgvOnStack_NoBuiltinExit)    ;; near builtin entry
00007FF5BD645753   9d3  cc                   int3l
00007FF5BD645754   9d4  48894598             REX.W movq [rbp-0x68],rax
00007FF5BD645758   9d8  488b45c0             REX.W movq rax,[rbp-0x40]
00007FF5BD64575C   9dc  488b1521f8ffff       REX.W movq rdx,[rip+0xfffff821]
00007FF5BD645763   9e3  bb2c000000           movl rbx,000000000000002C
00007FF5BD645768   9e8  e827fae87f           call 00007FF63D4D5194  (AddSmi_Baseline)    ;; near builtin entry
00007FF5BD64576D   9ed  48894588             REX.W movq [rbp-0x78],rax
00007FF5BD645771   9f1  4c8b4518             REX.W movq r8,[rbp+0x18]
00007FF5BD645775   9f5  4c894590             REX.W movq [rbp-0x70],r8
00007FF5BD645779   9f9  4c8b45a8             REX.W movq r8,[rbp-0x58]
00007FF5BD64577D   9fd  4c894580             REX.W movq [rbp-0x80],r8
00007FF5BD645781   a01  488b4598             REX.W movq rax,[rbp-0x68]
00007FF5BD645785   a05  bb042d0000           movl rbx,0000000000002D04
00007FF5BD64578A   a0a  ff7580               push [rbp-0x80]
00007FF5BD64578D   a0d  ff7588               push [rbp-0x78]
00007FF5BD645790   a10  ff7590               push [rbp-0x70]
00007FF5BD645793   a13  41ffb590010000       push [r13+0x190] (root (undefined_value))
00007FF5BD64579A   a1a  e83583e27f           call 00007FF63D46DAD4  (Call_ReceiverIsNullOrUndefined_Baseline_Compact)    ;; near builtin entry
00007FF5BD64579F   a1f  488945d0             REX.W movq [rbp-0x30],rax
00007FF5BD6457A3   a23  488b45c0             REX.W movq rax,[rbp-0x40]
00007FF5BD6457A7   a27  488b55a8             REX.W movq rdx,[rbp-0x58]
00007FF5BD6457AB   a2b  bb2f000000           movl rbx,000000000000002F
00007FF5BD6457B0   a30  e81ffee87f           call 00007FF63D4D55D4  (Subtract_Baseline)    ;; near builtin entry
00007FF5BD6457B5   a35  488b15c8f7ffff       REX.W movq rdx,[rip+0xfffff7c8]
00007FF5BD6457BC   a3c  bb30000000           movl rbx,0000000000000030
00007FF5BD6457C1   a41  e84e03e97f           call 00007FF63D4D5B14  (SubtractSmi_Baseline)    ;; near builtin entry
00007FF5BD6457C6   a46  488945c8             REX.W movq [rbp-0x38],rax
00007FF5BD6457CA   a4a  4c8b45a8             REX.W movq r8,[rbp-0x58]
00007FF5BD6457CE   a4e  4c8945c0             REX.W movq [rbp-0x40],r8
00007FF5BD6457D2   a52  33c0                 xorl rax,rax
00007FF5BD6457D4   a54  488945b8             REX.W movq [rbp-0x48],rax
00007FF5BD6457D8   a58  4c8b45f0             REX.W movq r8,[rbp-0x10]
00007FF5BD6457DC   a5c  4d8b4027             REX.W movq r8,[r8+0x27]
00007FF5BD6457E0   a60  4183400f1a           addl [r8+0xf],0x1a
00007FF5BD6457E5   a65  e9bf000000           jmp 00007FF5BD6458A9  <+0xb29>
00007FF5BD6457EA   a6a  4c8b45f8             REX.W movq r8,[rbp-0x8]
00007FF5BD6457EE   a6e  498b4077             REX.W movq rax,[r8+0x77]
00007FF5BD6457F2   a72  493b8598010000       REX.W cmpq rax,[r13+0x198] (root (the_hole_value))
00007FF5BD6457F9   a79  0f8522000000         jnz 00007FF5BD645821  <+0xaa1>
00007FF5BD6457FF   a7f  488b75f8             REX.W movq rsi,[rbp-0x8]
00007FF5BD645803   a83  49ba51aee4be23010000 REX.W movq r10,00000123BEE4AE51    ;; object: 0x0123bee4ae51 <String[8]: #CHAR_DOT>
00007FF5BD64580D   a8d  4152                 push r10
00007FF5BD64580F   a8f  b801000000           movl rax,0000000000000001
00007FF5BD645814   a94  488b1d65f6ffff       REX.W movq rbx,[rip+0xfffff665]
00007FF5BD64581B   a9b  e8740aec7f           call 00007FF63D506294  (CEntry_Return1_ArgvOnStack_NoBuiltinExit)    ;; near builtin entry
00007FF5BD645820   aa0  cc                   int3l
00007FF5BD645821   aa1  488b55b0             REX.W movq rdx,[rbp-0x50]
00007FF5BD645825   aa5  bb31000000           movl rbx,0000000000000031
00007FF5BD64582A   aaa  e8659ae97f           call 00007FF63D4DF294  (StrictEqual_Baseline)    ;; near builtin entry
00007FF5BD64582F   aaf  493b85b0010000       REX.W cmpq rax,[r13+0x1b0] (root (false_value))
00007FF5BD645836   ab6  7512                 jnz 00007FF5BD64584A  <+0xaca>
00007FF5BD645838   ab8  4c8b45f0             REX.W movq r8,[rbp-0x10]
00007FF5BD64583C   abc  4d8b4027             REX.W movq r8,[r8+0x27]
00007FF5BD645840   ac0  4183400f0e           addl [r8+0xf],0xe
00007FF5BD645845   ac5  e954000000           jmp 00007FF5BD64589E  <+0xb1e>
00007FF5BD64584A   aca  488b0566f5ffff       REX.W movq rax,[rip+0xfffff566]
00007FF5BD645851   ad1  488b55b8             REX.W movq rdx,[rbp-0x48]
00007FF5BD645855   ad5  bb32000000           movl rbx,0000000000000032
00007FF5BD64585A   ada  e8359ae97f           call 00007FF63D4DF294  (StrictEqual_Baseline)    ;; near builtin entry
00007FF5BD64585F   adf  493b85a8010000       REX.W cmpq rax,[r13+0x1a8] (root (true_value))
00007FF5BD645866   ae6  7512                 jnz 00007FF5BD64587A  <+0xafa>
00007FF5BD645868   ae8  4c8b45f0             REX.W movq r8,[rbp-0x10]
00007FF5BD64586C   aec  4d8b4027             REX.W movq r8,[r8+0x27]
00007FF5BD645870   af0  4183400f07           addl [r8+0xf],0x7
00007FF5BD645875   af5  e924000000           jmp 00007FF5BD64589E  <+0xb1e>
00007FF5BD64587A   afa  488b45b8             REX.W movq rax,[rbp-0x48]
00007FF5BD64587E   afe  bb33000000           movl rbx,0000000000000033
00007FF5BD645883   b03  e88cdce97f           call 00007FF63D4E3514  (Increment_Baseline)    ;; near builtin entry
00007FF5BD645888   b08  488945b8             REX.W movq [rbp-0x48],rax
00007FF5BD64588C   b0c  4c8b45f0             REX.W movq r8,[rbp-0x10]
00007FF5BD645890   b10  4d8b4027             REX.W movq r8,[r8+0x27]
00007FF5BD645894   b14  4183400f03           addl [r8+0xf],0x3
00007FF5BD645899   b19  e90b000000           jmp 00007FF5BD6458A9  <+0xb29>
00007FF5BD64589E   b1e  488b0512f5ffff       REX.W movq rax,[rip+0xfffff512]
00007FF5BD6458A5   b25  488945b8             REX.W movq [rbp-0x48],rax
00007FF5BD6458A9   b29  488b45a8             REX.W movq rax,[rbp-0x58]
00007FF5BD6458AD   b2d  bb34000000           movl rbx,0000000000000034
00007FF5BD6458B2   b32  e85ddce97f           call 00007FF63D4E3514  (Increment_Baseline)    ;; near builtin entry
00007FF5BD6458B7   b37  488945a8             REX.W movq [rbp-0x58],rax
00007FF5BD6458BB   b3b  4c8b45d8             REX.W movq r8,[rbp-0x28]
00007FF5BD6458BF   b3f  458a4814             movb r9l,[r8+0x14]
00007FF5BD6458C3   b43  4180f900             cmpb r9l,0x0
00007FF5BD6458C7   b47  7738                 ja 00007FF5BD645901  <+0xb81>
00007FF5BD6458C9   b49  4c8b45f0             REX.W movq r8,[rbp-0x10]
00007FF5BD6458CD   b4d  4d8b4027             REX.W movq r8,[r8+0x27]
00007FF5BD6458D1   b51  4181400f55feffff     addl [r8+0xf],0xfffffe55
00007FF5BD6458D9   b59  0f8df6f4ffff         jge 00007FF5BD644DD5  <+0x55>
00007FF5BD6458DF   b5f  50                   push rax
00007FF5BD6458E0   b60  488b75f8             REX.W movq rsi,[rbp-0x8]
00007FF5BD6458E4   b64  ff75f0               push [rbp-0x10]
00007FF5BD6458E7   b67  b801000000           movl rax,0000000000000001
00007FF5BD6458EC   b6c  48bb9021f83cf67f0000 REX.W movq rbx,00007FF63CF82190
00007FF5BD6458F6   b76  e89909ec7f           call 00007FF63D506294  (CEntry_Return1_ArgvOnStack_NoBuiltinExit)    ;; near builtin entry
00007FF5BD6458FB   b7b  58                   pop rax
00007FF5BD6458FC   b7c  e9d4f4ffff           jmp 00007FF5BD644DD5  <+0x55>
00007FF5BD645901   b81  498b80df010000       REX.W movq rax,[r8+0x1df]
00007FF5BD645908   b88  83f803               cmpl rax,0x3
00007FF5BD64590B   b8b  0f8415000000         jz 00007FF5BD645926  <+0xba6>
00007FF5BD645911   b91  4883e0fd             REX.W andq rax,0xfd
00007FF5BD645915   b95  f6403501             testb [rax+0x35],0x1
00007FF5BD645919   b99  7417                 jz 00007FF5BD645932  <+0xbb2>
00007FF5BD64591B   b9b  49c780df01000003000000 REX.W movq [r8+0x1df],0x3
00007FF5BD645926   ba6  33c0                 xorl rax,rax
00007FF5BD645928   ba8  4983e107             REX.W andq r9,0x7
00007FF5BD64592C   bac  4180f900             cmpb r9l,0x0
00007FF5BD645930   bb0  7697                 jna 00007FF5BD6458C9  <+0xb49>
00007FF5BD645932   bb2  488b75f8             REX.W movq rsi,[rbp-0x8]
00007FF5BD645936   bb6  e8592ce37f           call 00007FF63D478594  (BaselineOnStackReplacement)    ;; near builtin entry
00007FF5BD64593B   bbb  eb8c                 jmp 00007FF5BD6458C9  <+0xb49>
00007FF5BD64593D   bbd  488b45d0             REX.W movq rax,[rbp-0x30]
00007FF5BD645941   bc1  bb05000000           movl rbx,0000000000000005
00007FF5BD645946   bc6  48c7c144feffff       REX.W movq rcx,0xfffffe44
00007FF5BD64594D   bcd  e9c22ce37f           jmp 00007FF63D478614  (BaselineLeaveFrame)    ;; near builtin entry
00007FF5BD645952   bd2  cc                   int3l
00007FF5BD645953   bd3  cc                   int3l


RelocInfo (size = 184)
00007FF5BD644D87  full embedded object  (0x03f7ca6c2429 <BytecodeArray[444]>)
00007FF5BD644D90  near builtin entry
00007FF5BD644DA3  full embedded object  (0x036663f00701 <String[0]: #>)
00007FF5BD644DDB  full embedded object  (0x036663f04791 <String[6]: #length>)
00007FF5BD644DE6  near builtin entry
00007FF5BD644DF4  near builtin entry
00007FF5BD644E1C  full embedded object  (0x036663f04791 <String[6]: #length>)
00007FF5BD644E27  near builtin entry
00007FF5BD644E35  near builtin entry
00007FF5BD644E6F  full embedded object  (0x0123bee467f9 <String[25]: #StringPrototypeCharCodeAt>)
00007FF5BD644E89  near builtin entry
00007FF5BD644EA9  near builtin entry
00007FF5BD644ED7  near builtin entry
00007FF5BD644EDC  near builtin entry
00007FF5BD644F27  full embedded object  (0x0123bee4ae69 <String[18]: #CHAR_FORWARD_SLASH>)
00007FF5BD644F3E  near builtin entry
00007FF5BD644F5B  near builtin entry
00007FF5BD644F60  near builtin entry
00007FF5BD644F92  near builtin entry
00007FF5BD644FA0  near builtin entry
00007FF5BD644FD0  near builtin entry
00007FF5BD645018  near builtin entry
00007FF5BD645040  full embedded object  (0x036663f04791 <String[6]: #length>)
00007FF5BD64504B  near builtin entry
00007FF5BD645064  near builtin entry
00007FF5BD645094  near builtin entry
00007FF5BD6450CE  full embedded object  (0x0123bee467f9 <String[25]: #StringPrototypeCharCodeAt>)
00007FF5BD6450E5  near builtin entry
00007FF5BD6450F4  full embedded object  (0x036663f04791 <String[6]: #length>)
00007FF5BD6450FF  near builtin entry
00007FF5BD645110  near builtin entry
00007FF5BD64512F  near builtin entry
00007FF5BD645152  full embedded object  (0x0123bee4ae51 <String[8]: #CHAR_DOT>)
00007FF5BD645169  near builtin entry
00007FF5BD645178  near builtin entry
00007FF5BD6451B2  full embedded object  (0x0123bee467f9 <String[25]: #StringPrototypeCharCodeAt>)
00007FF5BD6451C9  near builtin entry
00007FF5BD6451D8  full embedded object  (0x036663f04791 <String[6]: #length>)
00007FF5BD6451E3  near builtin entry
00007FF5BD6451F4  near builtin entry
00007FF5BD645213  near builtin entry
00007FF5BD645236  full embedded object  (0x0123bee4ae51 <String[8]: #CHAR_DOT>)
00007FF5BD64524D  near builtin entry
00007FF5BD64525C  near builtin entry
00007FF5BD645281  full embedded object  (0x036663f04791 <String[6]: #length>)
00007FF5BD64528C  near builtin entry
00007FF5BD6452A5  near builtin entry
00007FF5BD6452DF  full embedded object  (0x0123bee473c1 <String[26]: #StringPrototypeLastIndexOf>)
00007FF5BD6452F6  near builtin entry
00007FF5BD645316  near builtin entry
00007FF5BD64532F  near builtin entry
00007FF5BD645350  full embedded object  (0x036663f00701 <String[0]: #>)
00007FF5BD64538F  full embedded object  (0x0123bee42349 <String[20]: #StringPrototypeSlice>)
00007FF5BD6453A6  near builtin entry
00007FF5BD6453DF  near builtin entry
00007FF5BD6453ED  full embedded object  (0x036663f04791 <String[6]: #length>)
00007FF5BD6453F8  near builtin entry
00007FF5BD645409  near builtin entry
00007FF5BD64542C  full embedded object  (0x0123bee473c1 <String[26]: #StringPrototypeLastIndexOf>)
00007FF5BD645443  near builtin entry
00007FF5BD645463  near builtin entry
00007FF5BD645471  near builtin entry
00007FF5BD6454A2  full embedded object  (0x036663f04791 <String[6]: #length>)
00007FF5BD6454AD  near builtin entry
00007FF5BD6454C1  near builtin entry
00007FF5BD6454E2  full embedded object  (0x036663f00701 <String[0]: #>)
00007FF5BD64551C  near builtin entry
00007FF5BD64553D  full embedded object  (0x036663f04791 <String[6]: #length>)
00007FF5BD645548  near builtin entry
00007FF5BD64555C  near builtin entry
00007FF5BD64558C  near builtin entry
00007FF5BD645596  full embedded object  (0x03f7ca6c2351 <String[2]: #..>)
00007FF5BD6455A8  near builtin entry
00007FF5BD6455C0  full embedded object  (0x03f7ca6c2351 <String[2]: #..>)
00007FF5BD6455D2  near builtin entry
00007FF5BD6455FD  full embedded object  (0x036663f04791 <String[6]: #length>)
00007FF5BD645608  near builtin entry
00007FF5BD64561C  near builtin entry
00007FF5BD645644  near builtin entry
00007FF5BD645667  full embedded object  (0x0123bee42349 <String[20]: #StringPrototypeSlice>)
00007FF5BD64567E  near builtin entry
00007FF5BD645698  near builtin entry
00007FF5BD6456D6  near builtin entry
00007FF5BD6456DF  near builtin entry
00007FF5BD6456ED  near builtin entry
00007FF5BD6456FB  near builtin entry
00007FF5BD645738  full embedded object  (0x0123bee42349 <String[20]: #StringPrototypeSlice>)
00007FF5BD64574F  near builtin entry
00007FF5BD645769  near builtin entry
00007FF5BD64579B  near builtin entry
00007FF5BD6457B1  near builtin entry
00007FF5BD6457C2  near builtin entry
00007FF5BD645805  full embedded object  (0x0123bee4ae51 <String[8]: #CHAR_DOT>)
00007FF5BD64581C  near builtin entry
00007FF5BD64582B  near builtin entry
00007FF5BD64585B  near builtin entry
00007FF5BD645884  near builtin entry
00007FF5BD6458B3  near builtin entry
00007FF5BD6458F7  near builtin entry
00007FF5BD645937  near builtin entry
00007FF5BD64594E  near builtin entry

000003F7CA6CE3E9: [Code] in OldSpace
 - map: 0x036663f01019 <Map[88](CODE_TYPE)>
 - kind: BASELINE
 - instruction_stream: 0x7ff5bd645971 <InstructionStream BASELINE>
 - code_entry_point: 00007FF5BD645980
 - kind_specific_flags: 0
00007FF5BD645971: [InstructionStream]
 - map: 0x036663f00951 <Map(INSTRUCTION_STREAM_TYPE)>
 - code: 0x03f7ca6ce3e9 <Code BASELINE>kind = BASELINE
compiler = baseline
address = 000003F7CA6CE3E9

Instructions (size = 392)
00007FF5BD645980     0  33db                 xorl rbx,rbx
00007FF5BD645982     2  49bcb9206ccaf7030000 REX.W movq r12,000003F7CA6C20B9    ;; object: 0x03f7ca6c20b9 <BytecodeArray[35]>
00007FF5BD64598C     c  e8032ae37f           call 00007FF63D478394  (BaselineOutOfLinePrologue)    ;; near builtin entry
00007FF5BD645991    11  4c8b45f8             REX.W movq r8,[rbp-0x8]
00007FF5BD645995    15  498b4057             REX.W movq rax,[r8+0x57]
00007FF5BD645999    19  493b8598010000       REX.W cmpq rax,[r13+0x198] (root (the_hole_value))
00007FF5BD6459A0    20  0f8525000000         jnz 00007FF5BD6459CB  <+0x4b>
00007FF5BD6459A6    26  488b75f8             REX.W movq rsi,[rbp-0x8]
00007FF5BD6459AA    2a  49bad1ade4be23010000 REX.W movq r10,00000123BEE4ADD1    ;; object: 0x0123bee4add1 <String[16]: #CHAR_UPPERCASE_A>
00007FF5BD6459B4    34  4152                 push r10
00007FF5BD6459B6    36  b801000000           movl rax,0000000000000001
00007FF5BD6459BB    3b  48bb5038f83cf67f0000 REX.W movq rbx,00007FF63CF83850
00007FF5BD6459C5    45  e8ca08ec7f           call 00007FF63D506294  (CEntry_Return1_ArgvOnStack_NoBuiltinExit)    ;; near builtin entry
00007FF5BD6459CA    4a  cc                   int3l
00007FF5BD6459CB    4b  488b5518             REX.W movq rdx,[rbp+0x18]
00007FF5BD6459CF    4f  33db                 xorl rbx,rbx
00007FF5BD6459D1    51  e8beaee97f           call 00007FF63D4E0894  (GreaterThanOrEqual_Baseline)    ;; near builtin entry
00007FF5BD6459D6    56  493b85b0010000       REX.W cmpq rax,[r13+0x1b0] (root (false_value))
00007FF5BD6459DD    5d  7512                 jnz 00007FF5BD6459F1  <+0x71>
00007FF5BD6459DF    5f  4c8b45f0             REX.W movq r8,[rbp-0x10]
00007FF5BD6459E3    63  4d8b4027             REX.W movq r8,[r8+0x27]
00007FF5BD6459E7    67  4183400f07           addl [r8+0xf],0x7
00007FF5BD6459EC    6c  e945000000           jmp 00007FF5BD645A36  <+0xb6>
00007FF5BD6459F1    71  4c8b45f8             REX.W movq r8,[rbp-0x8]
00007FF5BD6459F5    75  498b4067             REX.W movq rax,[r8+0x67]
00007FF5BD6459F9    79  493b8598010000       REX.W cmpq rax,[r13+0x198] (root (the_hole_value))
00007FF5BD645A00    80  0f8522000000         jnz 00007FF5BD645A28  <+0xa8>
00007FF5BD645A06    86  488b75f8             REX.W movq rsi,[rbp-0x8]
00007FF5BD645A0A    8a  49ba11aee4be23010000 REX.W movq r10,00000123BEE4AE11    ;; object: 0x0123bee4ae11 <String[16]: #CHAR_UPPERCASE_Z>
00007FF5BD645A14    94  4152                 push r10
00007FF5BD645A16    96  b801000000           movl rax,0000000000000001
00007FF5BD645A1B    9b  488b1d9bffffff       REX.W movq rbx,[rip+0xffffff9b]
00007FF5BD645A22    a2  e86d08ec7f           call 00007FF63D506294  (CEntry_Return1_ArgvOnStack_NoBuiltinExit)    ;; near builtin entry
00007FF5BD645A27    a7  cc                   int3l
00007FF5BD645A28    a8  488b5518             REX.W movq rdx,[rbp+0x18]
00007FF5BD645A2C    ac  bb01000000           movl rbx,0000000000000001
00007FF5BD645A31    b1  e89ea8e97f           call 00007FF63D4E02D4  (LessThanOrEqual_Baseline)    ;; near builtin entry
00007FF5BD645A36    b6  e8195bf07f           call 00007FF63D54B554  (ToBooleanForBaselineJump)    ;; near builtin entry
00007FF5BD645A3B    bb  4885d2               REX.W testq rdx,rdx
00007FF5BD645A3E    be  7412                 jz 00007FF5BD645A52  <+0xd2>
00007FF5BD645A40    c0  4c8b45f0             REX.W movq r8,[rbp-0x10]
00007FF5BD645A44    c4  4d8b4027             REX.W movq r8,[r8+0x27]
00007FF5BD645A48    c8  4183400f10           addl [r8+0xf],0x10
00007FF5BD645A4D    cd  e9a5000000           jmp 00007FF5BD645AF7  <+0x177>
00007FF5BD645A52    d2  4c8b45f8             REX.W movq r8,[rbp-0x8]
00007FF5BD645A56    d6  498b405f             REX.W movq rax,[r8+0x5f]
00007FF5BD645A5A    da  493b8598010000       REX.W cmpq rax,[r13+0x198] (root (the_hole_value))
00007FF5BD645A61    e1  0f8522000000         jnz 00007FF5BD645A89  <+0x109>
00007FF5BD645A67    e7  488b75f8             REX.W movq rsi,[rbp-0x8]
00007FF5BD645A6B    eb  49baf1ade4be23010000 REX.W movq r10,00000123BEE4ADF1    ;; object: 0x0123bee4adf1 <String[16]: #CHAR_LOWERCASE_A>
00007FF5BD645A75    f5  4152                 push r10
00007FF5BD645A77    f7  b801000000           movl rax,0000000000000001
00007FF5BD645A7C    fc  488b1d3affffff       REX.W movq rbx,[rip+0xffffff3a]
00007FF5BD645A83   103  e80c08ec7f           call 00007FF63D506294  (CEntry_Return1_ArgvOnStack_NoBuiltinExit)    ;; near builtin entry
00007FF5BD645A88   108  cc                   int3l
00007FF5BD645A89   109  488b5518             REX.W movq rdx,[rbp+0x18]
00007FF5BD645A8D   10d  bb02000000           movl rbx,0000000000000002
00007FF5BD645A92   112  e8fdade97f           call 00007FF63D4E0894  (GreaterThanOrEqual_Baseline)    ;; near builtin entry
00007FF5BD645A97   117  493b85b0010000       REX.W cmpq rax,[r13+0x1b0] (root (false_value))
00007FF5BD645A9E   11e  7512                 jnz 00007FF5BD645AB2  <+0x132>
00007FF5BD645AA0   120  4c8b45f0             REX.W movq r8,[rbp-0x10]
00007FF5BD645AA4   124  4d8b4027             REX.W movq r8,[r8+0x27]
00007FF5BD645AA8   128  4183400f07           addl [r8+0xf],0x7
00007FF5BD645AAD   12d  e945000000           jmp 00007FF5BD645AF7  <+0x177>
00007FF5BD645AB2   132  4c8b45f8             REX.W movq r8,[rbp-0x8]
00007FF5BD645AB6   136  498b406f             REX.W movq rax,[r8+0x6f]
00007FF5BD645ABA   13a  493b8598010000       REX.W cmpq rax,[r13+0x198] (root (the_hole_value))
00007FF5BD645AC1   141  0f8522000000         jnz 00007FF5BD645AE9  <+0x169>
00007FF5BD645AC7   147  488b75f8             REX.W movq rsi,[rbp-0x8]
00007FF5BD645ACB   14b  49ba31aee4be23010000 REX.W movq r10,00000123BEE4AE31    ;; object: 0x0123bee4ae31 <String[16]: #CHAR_LOWERCASE_Z>
00007FF5BD645AD5   155  4152                 push r10
00007FF5BD645AD7   157  b801000000           movl rax,0000000000000001
00007FF5BD645ADC   15c  488b1ddafeffff       REX.W movq rbx,[rip+0xfffffeda]
00007FF5BD645AE3   163  e8ac07ec7f           call 00007FF63D506294  (CEntry_Return1_ArgvOnStack_NoBuiltinExit)    ;; near builtin entry
00007FF5BD645AE8   168  cc                   int3l
00007FF5BD645AE9   169  488b5518             REX.W movq rdx,[rbp+0x18]
00007FF5BD645AED   16d  bb03000000           movl rbx,0000000000000003
00007FF5BD645AF2   172  e8dda7e97f           call 00007FF63D4E02D4  (LessThanOrEqual_Baseline)    ;; near builtin entry
00007FF5BD645AF7   177  bb02000000           movl rbx,0000000000000002
00007FF5BD645AFC   17c  48c7c1ddffffff       REX.W movq rcx,0xffffffdd
00007FF5BD645B03   183  e90c2be37f           jmp 00007FF63D478614  (BaselineLeaveFrame)    ;; near builtin entry


RelocInfo (size = 27)
00007FF5BD645984  full embedded object  (0x03f7ca6c20b9 <BytecodeArray[35]>)
00007FF5BD64598D  near builtin entry
00007FF5BD6459AC  full embedded object  (0x0123bee4add1 <String[16]: #CHAR_UPPERCASE_A>)
00007FF5BD6459C6  near builtin entry
00007FF5BD6459D2  near builtin entry
00007FF5BD645A0C  full embedded object  (0x0123bee4ae11 <String[16]: #CHAR_UPPERCASE_Z>)
00007FF5BD645A23  near builtin entry
00007FF5BD645A32  near builtin entry
00007FF5BD645A37  near builtin entry
00007FF5BD645A6D  full embedded object  (0x0123bee4adf1 <String[16]: #CHAR_LOWERCASE_A>)
00007FF5BD645A84  near builtin entry
00007FF5BD645A93  near builtin entry
00007FF5BD645ACD  full embedded object  (0x0123bee4ae31 <String[16]: #CHAR_LOWERCASE_Z>)
00007FF5BD645AE4  near builtin entry
00007FF5BD645AF3  near builtin entry
00007FF5BD645B04  near builtin entry

000003F7CA6FD7B1: [Code] in OldSpace
 - map: 0x036663f01019 <Map[88](CODE_TYPE)>
 - kind: BASELINE
 - instruction_stream: 0x7ff5bd645b31 <InstructionStream BASELINE>
 - code_entry_point: 00007FF5BD645B40
 - kind_specific_flags: 0
00007FF5BD645B31: [InstructionStream]
 - map: 0x036663f00951 <Map(INSTRUCTION_STREAM_TYPE)>
 - code: 0x03f7ca6fd7b1 <Code BASELINE>kind = BASELINE
compiler = baseline
address = 000003F7CA6FD7B1

Instructions (size = 6376)
00007FF5BD645B40     0  bbc8000000           movl rbx,00000000000000C8
00007FF5BD645B45     5  49bcc9196ccaf7030000 REX.W movq r12,000003F7CA6C19C9    ;; object: 0x03f7ca6c19c9 <BytecodeArray[852]>
00007FF5BD645B4F     f  e84028e37f           call 00007FF63D478394  (BaselineOutOfLinePrologue)    ;; near builtin entry
00007FF5BD645B54    14  50                   push rax
00007FF5BD645B55    15  50                   push rax
00007FF5BD645B56    16  50                   push rax
00007FF5BD645B57    17  50                   push rax
00007FF5BD645B58    18  41b802000000         movl r8,0000000000000002
00007FF5BD645B5E    1e  50                   push rax
00007FF5BD645B5F    1f  50                   push rax
00007FF5BD645B60    20  50                   push rax
00007FF5BD645B61    21  50                   push rax
00007FF5BD645B62    22  50                   push rax
00007FF5BD645B63    23  50                   push rax
00007FF5BD645B64    24  50                   push rax
00007FF5BD645B65    25  50                   push rax
00007FF5BD645B66    26  41ffc8               decl r8
00007FF5BD645B69    29  7ff3                 jg 00007FF5BD645B5E  <+0x1e>
00007FF5BD645B6B    2b  488b45f0             REX.W movq rax,[rbp-0x10]
00007FF5BD645B6F    2f  488b75f8             REX.W movq rsi,[rbp-0x8]
00007FF5BD645B73    33  e81c68f57f           call 00007FF63D59C394  (FastNewRestArguments)    ;; near builtin entry
00007FF5BD645B78    38  488945c8             REX.W movq [rbp-0x38],rax
00007FF5BD645B7C    3c  488945d0             REX.W movq [rbp-0x30],rax
00007FF5BD645B80    40  48b80107f06366030000 REX.W movq rax,0000036663F00701    ;; object: 0x036663f00701 <String[0]: #>
00007FF5BD645B8A    4a  488945c0             REX.W movq [rbp-0x40],rax
00007FF5BD645B8E    4e  48b80107f06366030000 REX.W movq rax,0000036663F00701    ;; object: 0x036663f00701 <String[0]: #>
00007FF5BD645B98    58  488945b8             REX.W movq [rbp-0x48],rax
00007FF5BD645B9C    5c  498b85b0010000       REX.W movq rax,[r13+0x1b0] (root (false_value))
00007FF5BD645BA3    63  488945b0             REX.W movq [rbp-0x50],rax
00007FF5BD645BA7    67  488b55c8             REX.W movq rdx,[rbp-0x38]
00007FF5BD645BAB    6b  48b99147f06366030000 REX.W movq rcx,0000036663F04791    ;; object: 0x036663f04791 <String[6]: #length>
00007FF5BD645BB5    75  b802000000           movl rax,0000000000000002
00007FF5BD645BBA    7a  e8d517e77f           call 00007FF63D4B7394  (LoadICBaseline)    ;; near builtin entry
00007FF5BD645BBF    7f  48ba0000000001000000 REX.W movq rdx,0000000100000000
00007FF5BD645BC9    89  33db                 xorl rbx,rbx
00007FF5BD645BCB    8b  e844ffe87f           call 00007FF63D4D5B14  (SubtractSmi_Baseline)    ;; near builtin entry
00007FF5BD645BD0    90  488945a8             REX.W movq [rbp-0x58],rax
00007FF5BD645BD4    94  48b800000000ffffffff REX.W movq rax,FFFFFFFF00000000
00007FF5BD645BDE    9e  488b55a8             REX.W movq rdx,[rbp-0x58]
00007FF5BD645BE2    a2  bb03000000           movl rbx,0000000000000003
00007FF5BD645BE7    a7  e8a8ace97f           call 00007FF63D4E0894  (GreaterThanOrEqual_Baseline)    ;; near builtin entry
00007FF5BD645BEC    ac  493b85b0010000       REX.W cmpq rax,[r13+0x1b0] (root (false_value))
00007FF5BD645BF3    b3  7515                 jnz 00007FF5BD645C0A  <+0xca>
00007FF5BD645BF5    b5  4c8b45f0             REX.W movq r8,[rbp-0x10]
00007FF5BD645BF9    b9  4d8b4027             REX.W movq r8,[r8+0x27]
00007FF5BD645BFD    bd  4181400ffc020000     addl [r8+0xf],0x2fc
00007FF5BD645C05    c5  e995160000           jmp 00007FF5BD64729F  <+0x175f>
00007FF5BD645C0A    ca  498b8590010000       REX.W movq rax,[r13+0x190] (root (undefined_value))
00007FF5BD645C11    d1  488945a0             REX.W movq [rbp-0x60],rax
00007FF5BD645C15    d5  33c0                 xorl rax,rax
00007FF5BD645C17    d7  488b55a8             REX.W movq rdx,[rbp-0x58]
00007FF5BD645C1B    db  bb04000000           movl rbx,0000000000000004
00007FF5BD645C20    e0  e86face97f           call 00007FF63D4E0894  (GreaterThanOrEqual_Baseline)    ;; near builtin entry
00007FF5BD645C25    e5  493b85b0010000       REX.W cmpq rax,[r13+0x1b0] (root (false_value))
00007FF5BD645C2C    ec  7512                 jnz 00007FF5BD645C40  <+0x100>
00007FF5BD645C2E    ee  4c8b45f0             REX.W movq r8,[rbp-0x10]
00007FF5BD645C32    f2  4d8b4027             REX.W movq r8,[r8+0x27]
00007FF5BD645C36    f6  4183400f32           addl [r8+0xf],0x32
00007FF5BD645C3B    fb  e94a010000           jmp 00007FF5BD645D8A  <+0x24a>
00007FF5BD645C40   100  488b45a8             REX.W movq rax,[rbp-0x58]
00007FF5BD645C44   104  488b55d0             REX.W movq rdx,[rbp-0x30]
00007FF5BD645C48   108  b90a000000           movl rcx,000000000000000A
00007FF5BD645C4D   10d  e882cfe77f           call 00007FF63D4C2BD4  (KeyedLoadICBaseline)    ;; near builtin entry
00007FF5BD645C52   112  488945a0             REX.W movq [rbp-0x60],rax
00007FF5BD645C56   116  4c8b45f8             REX.W movq r8,[rbp-0x8]
00007FF5BD645C5A   11a  498b80a7000000       REX.W movq rax,[r8+0xa7]
00007FF5BD645C61   121  493b8598010000       REX.W cmpq rax,[r13+0x198] (root (the_hole_value))
00007FF5BD645C68   128  0f8525000000         jnz 00007FF5BD645C93  <+0x153>
00007FF5BD645C6E   12e  488b75f8             REX.W movq rsi,[rbp-0x8]
00007FF5BD645C72   132  49ba714be4be23010000 REX.W movq r10,00000123BEE44B71    ;; object: 0x0123bee44b71 <String[14]: #validateString>
00007FF5BD645C7C   13c  4152                 push r10
00007FF5BD645C7E   13e  b801000000           movl rax,0000000000000001
00007FF5BD645C83   143  48bb5038f83cf67f0000 REX.W movq rbx,00007FF63CF83850
00007FF5BD645C8D   14d  e80206ec7f           call 00007FF63D506294  (CEntry_Return1_ArgvOnStack_NoBuiltinExit)    ;; near builtin entry
00007FF5BD645C92   152  cc                   int3l
00007FF5BD645C93   153  48898558ffffff       REX.W movq [rbp-0xa8],rax
00007FF5BD645C9A   15a  48b819186ccaf7030000 REX.W movq rax,000003F7CA6C1819    ;; object: 0x03f7ca6c1819 <String[6]: #paths[>
00007FF5BD645CA4   164  48898548ffffff       REX.W movq [rbp-0xb8],rax
00007FF5BD645CAB   16b  488b45a8             REX.W movq rax,[rbp-0x58]
00007FF5BD645CAF   16f  488b75f8             REX.W movq rsi,[rbp-0x8]
00007FF5BD645CB3   173  e81c04f07f           call 00007FF63D5460D4  (ToString)    ;; near builtin entry
00007FF5BD645CB8   178  488b9548ffffff       REX.W movq rdx,[rbp-0xb8]
00007FF5BD645CBF   17f  bb07000000           movl rbx,0000000000000007
00007FF5BD645CC4   184  e84befe87f           call 00007FF63D4D4C14  (Add_Baseline)    ;; near builtin entry
00007FF5BD645CC9   189  48898548ffffff       REX.W movq [rbp-0xb8],rax
00007FF5BD645CD0   190  48b83936f06366030000 REX.W movq rax,0000036663F03639    ;; object: 0x036663f03639 <String[1]: #]>
00007FF5BD645CDA   19a  488b9548ffffff       REX.W movq rdx,[rbp-0xb8]
00007FF5BD645CE1   1a1  bb07000000           movl rbx,0000000000000007
00007FF5BD645CE6   1a6  e829efe87f           call 00007FF63D4D4C14  (Add_Baseline)    ;; near builtin entry
00007FF5BD645CEB   1ab  48898548ffffff       REX.W movq [rbp-0xb8],rax
00007FF5BD645CF2   1b2  488b8558ffffff       REX.W movq rax,[rbp-0xa8]
00007FF5BD645CF9   1b9  bb03080000           movl rbx,0000000000000803
00007FF5BD645CFE   1be  ffb548ffffff         push [rbp-0xb8]
00007FF5BD645D04   1c4  ff75a0               push [rbp-0x60]
00007FF5BD645D07   1c7  41ffb590010000       push [r13+0x190] (root (undefined_value))
00007FF5BD645D0E   1ce  e8c17de27f           call 00007FF63D46DAD4  (Call_ReceiverIsNullOrUndefined_Baseline_Compact)    ;; near builtin entry
00007FF5BD645D13   1d3  488b55a0             REX.W movq rdx,[rbp-0x60]
00007FF5BD645D17   1d7  48b99147f06366030000 REX.W movq rcx,0000036663F04791    ;; object: 0x036663f04791 <String[6]: #length>
00007FF5BD645D21   1e1  b814000000           movl rax,0000000000000014
00007FF5BD645D26   1e6  e86916e77f           call 00007FF63D4B7394  (LoadICBaseline)    ;; near builtin entry
00007FF5BD645D2B   1eb  48898558ffffff       REX.W movq [rbp-0xa8],rax
00007FF5BD645D32   1f2  33c0                 xorl rax,rax
00007FF5BD645D34   1f4  488b9558ffffff       REX.W movq rdx,[rbp-0xa8]
00007FF5BD645D3B   1fb  bb0c000000           movl rbx,000000000000000C
00007FF5BD645D40   200  e84f95e97f           call 00007FF63D4DF294  (StrictEqual_Baseline)    ;; near builtin entry
00007FF5BD645D45   205  493b85b0010000       REX.W cmpq rax,[r13+0x1b0] (root (false_value))
00007FF5BD645D4C   20c  7512                 jnz 00007FF5BD645D60  <+0x220>
00007FF5BD645D4E   20e  4c8b45f0             REX.W movq r8,[rbp-0x10]
00007FF5BD645D52   212  4d8b4027             REX.W movq r8,[r8+0x27]
00007FF5BD645D56   216  4183400f02           addl [r8+0xf],0x2
00007FF5BD645D5B   21b  e915000000           jmp 00007FF5BD645D75  <+0x235>
00007FF5BD645D60   220  4c8b45f0             REX.W movq r8,[rbp-0x10]
00007FF5BD645D64   224  4d8b4027             REX.W movq r8,[r8+0x27]
00007FF5BD645D68   228  4181400fb7020000     addl [r8+0xf],0x2b7
00007FF5BD645D70   230  e999140000           jmp 00007FF5BD64720E  <+0x16ce>
00007FF5BD645D75   235  4c8b45f0             REX.W movq r8,[rbp-0x10]
00007FF5BD645D79   239  4d8b4027             REX.W movq r8,[r8+0x27]
00007FF5BD645D7D   23d  4181400f94000000     addl [r8+0xf],0x94
00007FF5BD645D85   245  e928040000           jmp 00007FF5BD6461B2  <+0x672>
00007FF5BD645D8A   24a  488b55c0             REX.W movq rdx,[rbp-0x40]
00007FF5BD645D8E   24e  48b99147f06366030000 REX.W movq rcx,0000036663F04791    ;; object: 0x036663f04791 <String[6]: #length>
00007FF5BD645D98   258  b81a000000           movl rax,000000000000001A
00007FF5BD645D9D   25d  e8f215e77f           call 00007FF63D4B7394  (LoadICBaseline)    ;; near builtin entry
00007FF5BD645DA2   262  48898558ffffff       REX.W movq [rbp-0xa8],rax
00007FF5BD645DA9   269  33c0                 xorl rax,rax
00007FF5BD645DAB   26b  488b9558ffffff       REX.W movq rdx,[rbp-0xa8]
00007FF5BD645DB2   272  bb0f000000           movl rbx,000000000000000F
00007FF5BD645DB7   277  e8d894e97f           call 00007FF63D4DF294  (StrictEqual_Baseline)    ;; near builtin entry
00007FF5BD645DBC   27c  493b85b0010000       REX.W cmpq rax,[r13+0x1b0] (root (false_value))
00007FF5BD645DC3   283  7512                 jnz 00007FF5BD645DD7  <+0x297>
00007FF5BD645DC5   285  4c8b45f0             REX.W movq r8,[rbp-0x10]
00007FF5BD645DC9   289  4d8b4027             REX.W movq r8,[r8+0x27]
00007FF5BD645DCD   28d  4183400f10           addl [r8+0xf],0x10
00007FF5BD645DD2   292  e95e000000           jmp 00007FF5BD645E35  <+0x2f5>
00007FF5BD645DD7   297  4c8b45f8             REX.W movq r8,[rbp-0x8]
00007FF5BD645DDB   29b  498b401f             REX.W movq rax,[r8+0x1f]
00007FF5BD645DDF   29f  48898550ffffff       REX.W movq [rbp-0xb0],rax
00007FF5BD645DE6   2a6  488b9550ffffff       REX.W movq rdx,[rbp-0xb0]
00007FF5BD645DED   2ad  48b9e939e5be23010000 REX.W movq rcx,00000123BEE539E9    ;; object: 0x0123bee539e9 <String[3]: #cwd>
00007FF5BD645DF7   2b7  b820000000           movl rax,0000000000000020
00007FF5BD645DFC   2bc  e89315e77f           call 00007FF63D4B7394  (LoadICBaseline)    ;; near builtin entry
00007FF5BD645E01   2c1  48898558ffffff       REX.W movq [rbp-0xa8],rax
00007FF5BD645E08   2c8  488b8558ffffff       REX.W movq rax,[rbp-0xa8]
00007FF5BD645E0F   2cf  bb01120000           movl rbx,0000000000001201
00007FF5BD645E14   2d4  ffb550ffffff         push [rbp-0xb0]
00007FF5BD645E1A   2da  e8b584e27f           call 00007FF63D46E2D4  (Call_ReceiverIsNotNullOrUndefined_Baseline_Compact)    ;; near builtin entry
00007FF5BD645E1F   2df  488945a0             REX.W movq [rbp-0x60],rax
00007FF5BD645E23   2e3  4c8b45f0             REX.W movq r8,[rbp-0x10]
00007FF5BD645E27   2e7  4d8b4027             REX.W movq r8,[r8+0x27]
00007FF5BD645E2B   2eb  4183400f79           addl [r8+0xf],0x79
00007FF5BD645E30   2f0  e97d030000           jmp 00007FF5BD6461B2  <+0x672>
00007FF5BD645E35   2f5  4c8b45f8             REX.W movq r8,[rbp-0x8]
00007FF5BD645E39   2f9  498b401f             REX.W movq rax,[r8+0x1f]
00007FF5BD645E3D   2fd  48898558ffffff       REX.W movq [rbp-0xa8],rax
00007FF5BD645E44   304  488b9558ffffff       REX.W movq rdx,[rbp-0xa8]
00007FF5BD645E4B   30b  48b989f6e5be23010000 REX.W movq rcx,00000123BEE5F689    ;; object: 0x0123bee5f689 <String[3]: #env>
00007FF5BD645E55   315  b828000000           movl rax,0000000000000028
00007FF5BD645E5A   31a  e83515e77f           call 00007FF63D4B7394  (LoadICBaseline)    ;; near builtin entry
00007FF5BD645E5F   31f  48898558ffffff       REX.W movq [rbp-0xa8],rax
00007FF5BD645E66   326  48b83933f06366030000 REX.W movq rax,0000036663F03339    ;; object: 0x036663f03339 <String[1]: #=>
00007FF5BD645E70   330  48898550ffffff       REX.W movq [rbp-0xb0],rax
00007FF5BD645E77   337  488b45c0             REX.W movq rax,[rbp-0x40]
00007FF5BD645E7B   33b  488b75f8             REX.W movq rsi,[rbp-0x8]
00007FF5BD645E7F   33f  e85002f07f           call 00007FF63D5460D4  (ToString)    ;; near builtin entry
00007FF5BD645E84   344  488b9550ffffff       REX.W movq rdx,[rbp-0xb0]
00007FF5BD645E8B   34b  bb16000000           movl rbx,0000000000000016
00007FF5BD645E90   350  e87fede87f           call 00007FF63D4D4C14  (Add_Baseline)    ;; near builtin entry
00007FF5BD645E95   355  488b9558ffffff       REX.W movq rdx,[rbp-0xa8]
00007FF5BD645E9C   35c  b92e000000           movl rcx,000000000000002E
00007FF5BD645EA1   361  e82ecde77f           call 00007FF63D4C2BD4  (KeyedLoadICBaseline)    ;; near builtin entry
00007FF5BD645EA6   366  e8a956f07f           call 00007FF63D54B554  (ToBooleanForBaselineJump)    ;; near builtin entry
00007FF5BD645EAB   36b  4885d2               REX.W testq rdx,rdx
00007FF5BD645EAE   36e  7412                 jz 00007FF5BD645EC2  <+0x382>
00007FF5BD645EB0   370  4c8b45f0             REX.W movq r8,[rbp-0x10]
00007FF5BD645EB4   374  4d8b4027             REX.W movq r8,[r8+0x27]
00007FF5BD645EB8   378  4183400f0d           addl [r8+0xf],0xd
00007FF5BD645EBD   37d  e948000000           jmp 00007FF5BD645F0A  <+0x3ca>
00007FF5BD645EC2   382  4c8b45f8             REX.W movq r8,[rbp-0x8]
00007FF5BD645EC6   386  498b401f             REX.W movq rax,[r8+0x1f]
00007FF5BD645ECA   38a  48898550ffffff       REX.W movq [rbp-0xb0],rax
00007FF5BD645ED1   391  488b9550ffffff       REX.W movq rdx,[rbp-0xb0]
00007FF5BD645ED8   398  48b9e939e5be23010000 REX.W movq rcx,00000123BEE539E9    ;; object: 0x0123bee539e9 <String[3]: #cwd>
00007FF5BD645EE2   3a2  b820000000           movl rax,0000000000000020
00007FF5BD645EE7   3a7  e8a814e77f           call 00007FF63D4B7394  (LoadICBaseline)    ;; near builtin entry
00007FF5BD645EEC   3ac  48898558ffffff       REX.W movq [rbp-0xa8],rax
00007FF5BD645EF3   3b3  488b8558ffffff       REX.W movq rax,[rbp-0xa8]
00007FF5BD645EFA   3ba  bb01190000           movl rbx,0000000000001901
00007FF5BD645EFF   3bf  ffb550ffffff         push [rbp-0xb0]
00007FF5BD645F05   3c5  e8ca83e27f           call 00007FF63D46E2D4  (Call_ReceiverIsNotNullOrUndefined_Baseline_Compact)    ;; near builtin entry
00007FF5BD645F0A   3ca  488945a0             REX.W movq [rbp-0x60],rax
00007FF5BD645F0E   3ce  493b8590010000       REX.W cmpq rax,[r13+0x190] (root (undefined_value))
00007FF5BD645F15   3d5  7512                 jnz 00007FF5BD645F29  <+0x3e9>
00007FF5BD645F17   3d7  4c8b45f0             REX.W movq r8,[rbp-0x10]
00007FF5BD645F1B   3db  4d8b4027             REX.W movq r8,[r8+0x27]
00007FF5BD645F1F   3df  4183400f48           addl [r8+0xf],0x48
00007FF5BD645F24   3e4  e956020000           jmp 00007FF5BD64617F  <+0x63f>
00007FF5BD645F29   3e9  4c8b45f8             REX.W movq r8,[rbp-0x8]
00007FF5BD645F2D   3ed  498b404f             REX.W movq rax,[r8+0x4f]
00007FF5BD645F31   3f1  493b8598010000       REX.W cmpq rax,[r13+0x198] (root (the_hole_value))
00007FF5BD645F38   3f8  0f8522000000         jnz 00007FF5BD645F60  <+0x420>
00007FF5BD645F3E   3fe  488b75f8             REX.W movq rsi,[rbp-0x8]
00007FF5BD645F42   402  49ba512ce4be23010000 REX.W movq r10,00000123BEE42C51    ;; object: 0x0123bee42c51 <String[26]: #StringPrototypeToLowerCase>
00007FF5BD645F4C   40c  4152                 push r10
00007FF5BD645F4E   40e  b801000000           movl rax,0000000000000001
00007FF5BD645F53   413  488b1d2bfdffff       REX.W movq rbx,[rip+0xfffffd2b]
00007FF5BD645F5A   41a  e83503ec7f           call 00007FF63D506294  (CEntry_Return1_ArgvOnStack_NoBuiltinExit)    ;; near builtin entry
00007FF5BD645F5F   41f  cc                   int3l
00007FF5BD645F60   420  48898558ffffff       REX.W movq [rbp-0xa8],rax
00007FF5BD645F67   427  4c8b45f8             REX.W movq r8,[rbp-0x8]
00007FF5BD645F6B   42b  498b4047             REX.W movq rax,[r8+0x47]
00007FF5BD645F6F   42f  493b8598010000       REX.W cmpq rax,[r13+0x198] (root (the_hole_value))
00007FF5BD645F76   436  0f8522000000         jnz 00007FF5BD645F9E  <+0x45e>
00007FF5BD645F7C   43c  488b75f8             REX.W movq rsi,[rbp-0x8]
00007FF5BD645F80   440  49ba4923e4be23010000 REX.W movq r10,00000123BEE42349    ;; object: 0x0123bee42349 <String[20]: #StringPrototypeSlice>
00007FF5BD645F8A   44a  4152                 push r10
00007FF5BD645F8C   44c  b801000000           movl rax,0000000000000001
00007FF5BD645F91   451  488b1dedfcffff       REX.W movq rbx,[rip+0xfffffced]
00007FF5BD645F98   458  e8f702ec7f           call 00007FF63D506294  (CEntry_Return1_ArgvOnStack_NoBuiltinExit)    ;; near builtin entry
00007FF5BD645F9D   45d  cc                   int3l
00007FF5BD645F9E   45e  48898550ffffff       REX.W movq [rbp-0xb0],rax
00007FF5BD645FA5   465  33c0                 xorl rax,rax
00007FF5BD645FA7   467  48898540ffffff       REX.W movq [rbp-0xc0],rax
00007FF5BD645FAE   46e  48b80000000002000000 REX.W movq rax,0000000200000000
00007FF5BD645FB8   478  48898538ffffff       REX.W movq [rbp-0xc8],rax
00007FF5BD645FBF   47f  4c8b45a0             REX.W movq r8,[rbp-0x60]
00007FF5BD645FC3   483  4c898548ffffff       REX.W movq [rbp-0xb8],r8
00007FF5BD645FCA   48a  488b8550ffffff       REX.W movq rax,[rbp-0xb0]
00007FF5BD645FD1   491  bb041b0000           movl rbx,0000000000001B04
00007FF5BD645FD6   496  ffb538ffffff         push [rbp-0xc8]
00007FF5BD645FDC   49c  ffb540ffffff         push [rbp-0xc0]
00007FF5BD645FE2   4a2  ffb548ffffff         push [rbp-0xb8]
00007FF5BD645FE8   4a8  41ffb590010000       push [r13+0x190] (root (undefined_value))
00007FF5BD645FEF   4af  e8e07ae27f           call 00007FF63D46DAD4  (Call_ReceiverIsNullOrUndefined_Baseline_Compact)    ;; near builtin entry
00007FF5BD645FF4   4b4  48898550ffffff       REX.W movq [rbp-0xb0],rax
00007FF5BD645FFB   4bb  488b8558ffffff       REX.W movq rax,[rbp-0xa8]
00007FF5BD646002   4c2  bb021d0000           movl rbx,0000000000001D02
00007FF5BD646007   4c7  ffb550ffffff         push [rbp-0xb0]
00007FF5BD64600D   4cd  41ffb590010000       push [r13+0x190] (root (undefined_value))
00007FF5BD646014   4d4  e8bb7ae27f           call 00007FF63D46DAD4  (Call_ReceiverIsNullOrUndefined_Baseline_Compact)    ;; near builtin entry
00007FF5BD646019   4d9  48898558ffffff       REX.W movq [rbp-0xa8],rax
00007FF5BD646020   4e0  4c8b45f8             REX.W movq r8,[rbp-0x8]
00007FF5BD646024   4e4  498b404f             REX.W movq rax,[r8+0x4f]
00007FF5BD646028   4e8  493b8598010000       REX.W cmpq rax,[r13+0x198] (root (the_hole_value))
00007FF5BD64602F   4ef  0f8522000000         jnz 00007FF5BD646057  <+0x517>
00007FF5BD646035   4f5  488b75f8             REX.W movq rsi,[rbp-0x8]
00007FF5BD646039   4f9  49ba512ce4be23010000 REX.W movq r10,00000123BEE42C51    ;; object: 0x0123bee42c51 <String[26]: #StringPrototypeToLowerCase>
00007FF5BD646043   503  4152                 push r10
00007FF5BD646045   505  b801000000           movl rax,0000000000000001
00007FF5BD64604A   50a  488b1d34fcffff       REX.W movq rbx,[rip+0xfffffc34]
00007FF5BD646051   511  e83e02ec7f           call 00007FF63D506294  (CEntry_Return1_ArgvOnStack_NoBuiltinExit)    ;; near builtin entry
00007FF5BD646056   516  cc                   int3l
00007FF5BD646057   517  48898550ffffff       REX.W movq [rbp-0xb0],rax
00007FF5BD64605E   51e  488b8550ffffff       REX.W movq rax,[rbp-0xb0]
00007FF5BD646065   525  bb021f0000           movl rbx,0000000000001F02
00007FF5BD64606A   52a  ff75c0               push [rbp-0x40]
00007FF5BD64606D   52d  41ffb590010000       push [r13+0x190] (root (undefined_value))
00007FF5BD646074   534  e85b7ae27f           call 00007FF63D46DAD4  (Call_ReceiverIsNullOrUndefined_Baseline_Compact)    ;; near builtin entry
00007FF5BD646079   539  488b9558ffffff       REX.W movq rdx,[rbp-0xa8]
00007FF5BD646080   540  bb21000000           movl rbx,0000000000000021
00007FF5BD646085   545  e80a92e97f           call 00007FF63D4DF294  (StrictEqual_Baseline)    ;; near builtin entry
00007FF5BD64608A   54a  493b85a8010000       REX.W cmpq rax,[r13+0x1a8] (root (true_value))
00007FF5BD646091   551  7512                 jnz 00007FF5BD6460A5  <+0x565>
00007FF5BD646093   553  4c8b45f0             REX.W movq r8,[rbp-0x10]
00007FF5BD646097   557  4d8b4027             REX.W movq r8,[r8+0x27]
00007FF5BD64609B   55b  4183400f22           addl [r8+0xf],0x22
00007FF5BD6460A0   560  e90d010000           jmp 00007FF5BD6461B2  <+0x672>
00007FF5BD6460A5   565  4c8b45f8             REX.W movq r8,[rbp-0x8]
00007FF5BD6460A9   569  498b4027             REX.W movq rax,[r8+0x27]
00007FF5BD6460AD   56d  493b8598010000       REX.W cmpq rax,[r13+0x198] (root (the_hole_value))
00007FF5BD6460B4   574  0f8522000000         jnz 00007FF5BD6460DC  <+0x59c>
00007FF5BD6460BA   57a  488b75f8             REX.W movq rsi,[rbp-0x8]
00007FF5BD6460BE   57e  49baf967e4be23010000 REX.W movq r10,00000123BEE467F9    ;; object: 0x0123bee467f9 <String[25]: #StringPrototypeCharCodeAt>
00007FF5BD6460C8   588  4152                 push r10
00007FF5BD6460CA   58a  b801000000           movl rax,0000000000000001
00007FF5BD6460CF   58f  488b1daffbffff       REX.W movq rbx,[rip+0xfffffbaf]
00007FF5BD6460D6   596  e8b901ec7f           call 00007FF63D506294  (CEntry_Return1_ArgvOnStack_NoBuiltinExit)    ;; near builtin entry
00007FF5BD6460DB   59b  cc                   int3l
00007FF5BD6460DC   59c  48898558ffffff       REX.W movq [rbp-0xa8],rax
00007FF5BD6460E3   5a3  488b05c6feffff       REX.W movq rax,[rip+0xfffffec6]
00007FF5BD6460EA   5aa  48898548ffffff       REX.W movq [rbp-0xb8],rax
00007FF5BD6460F1   5b1  488b8558ffffff       REX.W movq rax,[rbp-0xa8]
00007FF5BD6460F8   5b8  bb03220000           movl rbx,0000000000002203
00007FF5BD6460FD   5bd  ffb548ffffff         push [rbp-0xb8]
00007FF5BD646103   5c3  ff75a0               push [rbp-0x60]
00007FF5BD646106   5c6  41ffb590010000       push [r13+0x190] (root (undefined_value))
00007FF5BD64610D   5cd  e8c279e27f           call 00007FF63D46DAD4  (Call_ReceiverIsNullOrUndefined_Baseline_Compact)    ;; near builtin entry
00007FF5BD646112   5d2  48898558ffffff       REX.W movq [rbp-0xa8],rax
00007FF5BD646119   5d9  4c8b45f8             REX.W movq r8,[rbp-0x8]
00007FF5BD64611D   5dd  498b8087000000       REX.W movq rax,[r8+0x87]
00007FF5BD646124   5e4  493b8598010000       REX.W cmpq rax,[r13+0x198] (root (the_hole_value))
00007FF5BD64612B   5eb  0f8522000000         jnz 00007FF5BD646153  <+0x613>
00007FF5BD646131   5f1  488b75f8             REX.W movq rsi,[rbp-0x8]
00007FF5BD646135   5f5  49ba91aee4be23010000 REX.W movq r10,00000123BEE4AE91    ;; object: 0x0123bee4ae91 <String[19]: #CHAR_BACKWARD_SLASH>
00007FF5BD64613F   5ff  4152                 push r10
00007FF5BD646141   601  b801000000           movl rax,0000000000000001
00007FF5BD646146   606  488b1d38fbffff       REX.W movq rbx,[rip+0xfffffb38]
00007FF5BD64614D   60d  e84201ec7f           call 00007FF63D506294  (CEntry_Return1_ArgvOnStack_NoBuiltinExit)    ;; near builtin entry
00007FF5BD646152   612  cc                   int3l
00007FF5BD646153   613  488b9558ffffff       REX.W movq rdx,[rbp-0xa8]
00007FF5BD64615A   61a  bb24000000           movl rbx,0000000000000024
00007FF5BD64615F   61f  e83091e97f           call 00007FF63D4DF294  (StrictEqual_Baseline)    ;; near builtin entry
00007FF5BD646164   624  493b85b0010000       REX.W cmpq rax,[r13+0x1b0] (root (false_value))
00007FF5BD64616B   62b  7512                 jnz 00007FF5BD64617F  <+0x63f>
00007FF5BD64616D   62d  4c8b45f0             REX.W movq r8,[rbp-0x10]
00007FF5BD646171   631  4d8b4027             REX.W movq r8,[r8+0x27]
00007FF5BD646175   635  4183400f0a           addl [r8+0xf],0xa
00007FF5BD64617A   63a  e933000000           jmp 00007FF5BD6461B2  <+0x672>
00007FF5BD64617F   63f  488b45c0             REX.W movq rax,[rbp-0x40]
00007FF5BD646183   643  488b75f8             REX.W movq rsi,[rbp-0x8]
00007FF5BD646187   647  e848ffef7f           call 00007FF63D5460D4  (ToString)    ;; near builtin entry
00007FF5BD64618C   64c  48898558ffffff       REX.W movq [rbp-0xa8],rax
00007FF5BD646193   653  48b82136f06366030000 REX.W movq rax,0000036663F03621    ;; object: 0x036663f03621 <String[1]: #\\>
00007FF5BD64619D   65d  488b9558ffffff       REX.W movq rdx,[rbp-0xa8]
00007FF5BD6461A4   664  bb25000000           movl rbx,0000000000000025
00007FF5BD6461A9   669  e866eae87f           call 00007FF63D4D4C14  (Add_Baseline)    ;; near builtin entry
00007FF5BD6461AE   66e  488945a0             REX.W movq [rbp-0x60],rax
00007FF5BD6461B2   672  488b55a0             REX.W movq rdx,[rbp-0x60]
00007FF5BD6461B6   676  48b99147f06366030000 REX.W movq rcx,0000036663F04791    ;; object: 0x036663f04791 <String[6]: #length>
00007FF5BD6461C0   680  b814000000           movl rax,0000000000000014
00007FF5BD6461C5   685  e8ca11e77f           call 00007FF63D4B7394  (LoadICBaseline)    ;; near builtin entry
00007FF5BD6461CA   68a  48894598             REX.W movq [rbp-0x68],rax
00007FF5BD6461CE   68e  33c0                 xorl rax,rax
00007FF5BD6461D0   690  48894590             REX.W movq [rbp-0x70],rax
00007FF5BD6461D4   694  48b80107f06366030000 REX.W movq rax,0000036663F00701    ;; object: 0x036663f00701 <String[0]: #>
00007FF5BD6461DE   69e  48894588             REX.W movq [rbp-0x78],rax
00007FF5BD6461E2   6a2  498b85b0010000       REX.W movq rax,[r13+0x1b0] (root (false_value))
00007FF5BD6461E9   6a9  48894580             REX.W movq [rbp-0x80],rax
00007FF5BD6461ED   6ad  4c8b45f8             REX.W movq r8,[rbp-0x8]
00007FF5BD6461F1   6b1  498b4027             REX.W movq rax,[r8+0x27]
00007FF5BD6461F5   6b5  493b8598010000       REX.W cmpq rax,[r13+0x198] (root (the_hole_value))
00007FF5BD6461FC   6bc  0f8522000000         jnz 00007FF5BD646224  <+0x6e4>
00007FF5BD646202   6c2  488b75f8             REX.W movq rsi,[rbp-0x8]
00007FF5BD646206   6c6  49baf967e4be23010000 REX.W movq r10,00000123BEE467F9    ;; object: 0x0123bee467f9 <String[25]: #StringPrototypeCharCodeAt>
00007FF5BD646210   6d0  4152                 push r10
00007FF5BD646212   6d2  b801000000           movl rax,0000000000000001
00007FF5BD646217   6d7  488b1d67faffff       REX.W movq rbx,[rip+0xfffffa67]
00007FF5BD64621E   6de  e87100ec7f           call 00007FF63D506294  (CEntry_Return1_ArgvOnStack_NoBuiltinExit)    ;; near builtin entry
00007FF5BD646223   6e3  cc                   int3l
00007FF5BD646224   6e4  48898558ffffff       REX.W movq [rbp-0xa8],rax
00007FF5BD64622B   6eb  33c0                 xorl rax,rax
00007FF5BD64622D   6ed  48898548ffffff       REX.W movq [rbp-0xb8],rax
00007FF5BD646234   6f4  488b8558ffffff       REX.W movq rax,[rbp-0xa8]
00007FF5BD64623B   6fb  bb03260000           movl rbx,0000000000002603
00007FF5BD646240   700  ffb548ffffff         push [rbp-0xb8]
00007FF5BD646246   706  ff75a0               push [rbp-0x60]
00007FF5BD646249   709  41ffb590010000       push [r13+0x190] (root (undefined_value))
00007FF5BD646250   710  e87f78e27f           call 00007FF63D46DAD4  (Call_ReceiverIsNullOrUndefined_Baseline_Compact)    ;; near builtin entry
00007FF5BD646255   715  48898578ffffff       REX.W movq [rbp-0x88],rax
00007FF5BD64625C   71c  488b055ef9ffff       REX.W movq rax,[rip+0xfffff95e]
00007FF5BD646263   723  488b5598             REX.W movq rdx,[rbp-0x68]
00007FF5BD646267   727  bb28000000           movl rbx,0000000000000028
00007FF5BD64626C   72c  e82390e97f           call 00007FF63D4DF294  (StrictEqual_Baseline)    ;; near builtin entry
00007FF5BD646271   731  493b85b0010000       REX.W cmpq rax,[r13+0x1b0] (root (false_value))
00007FF5BD646278   738  7512                 jnz 00007FF5BD64628C  <+0x74c>
00007FF5BD64627A   73a  4c8b45f0             REX.W movq r8,[rbp-0x10]
00007FF5BD64627E   73e  4d8b4027             REX.W movq r8,[r8+0x27]
00007FF5BD646282   742  4183400f10           addl [r8+0xf],0x10
00007FF5BD646287   747  e977000000           jmp 00007FF5BD646303  <+0x7c3>
00007FF5BD64628C   74c  4c8b45f8             REX.W movq r8,[rbp-0x8]
00007FF5BD646290   750  498b80b7000000       REX.W movq rax,[r8+0xb7]
00007FF5BD646297   757  48898558ffffff       REX.W movq [rbp-0xa8],rax
00007FF5BD64629E   75e  488b8558ffffff       REX.W movq rax,[rbp-0xa8]
00007FF5BD6462A5   765  bb02290000           movl rbx,0000000000002902
00007FF5BD6462AA   76a  ffb578ffffff         push [rbp-0x88]
00007FF5BD6462B0   770  41ffb590010000       push [r13+0x190] (root (undefined_value))
00007FF5BD6462B7   777  e81878e27f           call 00007FF63D46DAD4  (Call_ReceiverIsNullOrUndefined_Baseline_Compact)    ;; near builtin entry
00007FF5BD6462BC   77c  e89352f07f           call 00007FF63D54B554  (ToBooleanForBaselineJump)    ;; near builtin entry
00007FF5BD6462C1   781  4885d2               REX.W testq rdx,rdx
00007FF5BD6462C4   784  7512                 jnz 00007FF5BD6462D8  <+0x798>
00007FF5BD6462C6   786  4c8b45f0             REX.W movq r8,[rbp-0x10]
00007FF5BD6462CA   78a  4d8b4027             REX.W movq r8,[r8+0x27]
00007FF5BD6462CE   78e  4183400f05           addl [r8+0xf],0x5
00007FF5BD6462D3   793  e916000000           jmp 00007FF5BD6462EE  <+0x7ae>
00007FF5BD6462D8   798  488b05e2f8ffff       REX.W movq rax,[rip+0xfffff8e2]
00007FF5BD6462DF   79f  48894590             REX.W movq [rbp-0x70],rax
00007FF5BD6462E3   7a3  498b85a8010000       REX.W movq rax,[r13+0x1a8] (root (true_value))
00007FF5BD6462EA   7aa  48894580             REX.W movq [rbp-0x80],rax
00007FF5BD6462EE   7ae  4c8b45f0             REX.W movq r8,[rbp-0x10]
00007FF5BD6462F2   7b2  4d8b4027             REX.W movq r8,[r8+0x27]
00007FF5BD6462F6   7b6  4181400f77010000     addl [r8+0xf],0x177
00007FF5BD6462FE   7be  e9940b0000           jmp 00007FF5BD646E97  <+0x1357>
00007FF5BD646303   7c3  4c8b45f8             REX.W movq r8,[rbp-0x8]
00007FF5BD646307   7c7  498b80b7000000       REX.W movq rax,[r8+0xb7]
00007FF5BD64630E   7ce  48898558ffffff       REX.W movq [rbp-0xa8],rax
00007FF5BD646315   7d5  488b8558ffffff       REX.W movq rax,[rbp-0xa8]
00007FF5BD64631C   7dc  bb022b0000           movl rbx,0000000000002B02
00007FF5BD646321   7e1  ffb578ffffff         push [rbp-0x88]
00007FF5BD646327   7e7  41ffb590010000       push [r13+0x190] (root (undefined_value))
00007FF5BD64632E   7ee  e8a177e27f           call 00007FF63D46DAD4  (Call_ReceiverIsNullOrUndefined_Baseline_Compact)    ;; near builtin entry
00007FF5BD646333   7f3  e81c52f07f           call 00007FF63D54B554  (ToBooleanForBaselineJump)    ;; near builtin entry
00007FF5BD646338   7f8  4885d2               REX.W testq rdx,rdx
00007FF5BD64633B   7fb  7515                 jnz 00007FF5BD646352  <+0x812>
00007FF5BD64633D   7fd  4c8b45f0             REX.W movq r8,[rbp-0x10]
00007FF5BD646341   801  4d8b4027             REX.W movq r8,[r8+0x27]
00007FF5BD646345   805  4181400f0f010000     addl [r8+0xf],0x10f
00007FF5BD64634D   80d  e97d080000           jmp 00007FF5BD646BCF  <+0x108f>
00007FF5BD646352   812  498b85a8010000       REX.W movq rax,[r13+0x1a8] (root (true_value))
00007FF5BD646359   819  48894580             REX.W movq [rbp-0x80],rax
00007FF5BD64635D   81d  4c8b45f8             REX.W movq r8,[rbp-0x8]
00007FF5BD646361   821  498b80b7000000       REX.W movq rax,[r8+0xb7]
00007FF5BD646368   828  48898558ffffff       REX.W movq [rbp-0xa8],rax
00007FF5BD64636F   82f  4c8b45f8             REX.W movq r8,[rbp-0x8]
00007FF5BD646373   833  498b4027             REX.W movq rax,[r8+0x27]
00007FF5BD646377   837  493b8598010000       REX.W cmpq rax,[r13+0x198] (root (the_hole_value))
00007FF5BD64637E   83e  0f8522000000         jnz 00007FF5BD6463A6  <+0x866>
00007FF5BD646384   844  488b75f8             REX.W movq rsi,[rbp-0x8]
00007FF5BD646388   848  49baf967e4be23010000 REX.W movq r10,00000123BEE467F9    ;; object: 0x0123bee467f9 <String[25]: #StringPrototypeCharCodeAt>
00007FF5BD646392   852  4152                 push r10
00007FF5BD646394   854  b801000000           movl rax,0000000000000001
00007FF5BD646399   859  488b1de5f8ffff       REX.W movq rbx,[rip+0xfffff8e5]
00007FF5BD6463A0   860  e8effeeb7f           call 00007FF63D506294  (CEntry_Return1_ArgvOnStack_NoBuiltinExit)    ;; near builtin entry
00007FF5BD6463A5   865  cc                   int3l
00007FF5BD6463A6   866  48898550ffffff       REX.W movq [rbp-0xb0],rax
00007FF5BD6463AD   86d  488b050df8ffff       REX.W movq rax,[rip+0xfffff80d]
00007FF5BD6463B4   874  48898540ffffff       REX.W movq [rbp-0xc0],rax
00007FF5BD6463BB   87b  488b8550ffffff       REX.W movq rax,[rbp-0xb0]
00007FF5BD6463C2   882  bb032d0000           movl rbx,0000000000002D03
00007FF5BD6463C7   887  ffb540ffffff         push [rbp-0xc0]
00007FF5BD6463CD   88d  ff75a0               push [rbp-0x60]
00007FF5BD6463D0   890  41ffb590010000       push [r13+0x190] (root (undefined_value))
00007FF5BD6463D7   897  e8f876e27f           call 00007FF63D46DAD4  (Call_ReceiverIsNullOrUndefined_Baseline_Compact)    ;; near builtin entry
00007FF5BD6463DC   89c  48898550ffffff       REX.W movq [rbp-0xb0],rax
00007FF5BD6463E3   8a3  488b8558ffffff       REX.W movq rax,[rbp-0xa8]
00007FF5BD6463EA   8aa  bb022f0000           movl rbx,0000000000002F02
00007FF5BD6463EF   8af  ffb550ffffff         push [rbp-0xb0]
00007FF5BD6463F5   8b5  41ffb590010000       push [r13+0x190] (root (undefined_value))
00007FF5BD6463FC   8bc  e8d376e27f           call 00007FF63D46DAD4  (Call_ReceiverIsNullOrUndefined_Baseline_Compact)    ;; near builtin entry
00007FF5BD646401   8c1  e84e51f07f           call 00007FF63D54B554  (ToBooleanForBaselineJump)    ;; near builtin entry
00007FF5BD646406   8c6  4885d2               REX.W testq rdx,rdx
00007FF5BD646409   8c9  7515                 jnz 00007FF5BD646420  <+0x8e0>
00007FF5BD64640B   8cb  4c8b45f0             REX.W movq r8,[rbp-0x10]
00007FF5BD64640F   8cf  4d8b4027             REX.W movq r8,[r8+0x27]
00007FF5BD646413   8d3  4181400fee000000     addl [r8+0xf],0xee
00007FF5BD64641B   8db  e992070000           jmp 00007FF5BD646BB2  <+0x1072>
00007FF5BD646420   8e0  488b0589fbffff       REX.W movq rax,[rip+0xfffffb89]
00007FF5BD646427   8e7  48898570ffffff       REX.W movq [rbp-0x90],rax
00007FF5BD64642E   8ee  48898568ffffff       REX.W movq [rbp-0x98],rax
00007FF5BD646435   8f5  488b4598             REX.W movq rax,[rbp-0x68]
00007FF5BD646439   8f9  488b9570ffffff       REX.W movq rdx,[rbp-0x90]
00007FF5BD646440   900  bb31000000           movl rbx,0000000000000031
00007FF5BD646445   905  e80a93e97f           call 00007FF63D4DF754  (LessThan_Baseline)    ;; near builtin entry
00007FF5BD64644A   90a  493b85b0010000       REX.W cmpq rax,[r13+0x1b0] (root (false_value))
00007FF5BD646451   911  7512                 jnz 00007FF5BD646465  <+0x925>
00007FF5BD646453   913  4c8b45f0             REX.W movq r8,[rbp-0x10]
00007FF5BD646457   917  4d8b4027             REX.W movq r8,[r8+0x27]
00007FF5BD64645B   91b  4183400f1f           addl [r8+0xf],0x1f
00007FF5BD646460   920  e949010000           jmp 00007FF5BD6465AE  <+0xa6e>
00007FF5BD646465   925  4c8b45f8             REX.W movq r8,[rbp-0x8]
00007FF5BD646469   929  498b80b7000000       REX.W movq rax,[r8+0xb7]
00007FF5BD646470   930  48898558ffffff       REX.W movq [rbp-0xa8],rax
00007FF5BD646477   937  4c8b45f8             REX.W movq r8,[rbp-0x8]
00007FF5BD64647B   93b  498b4027             REX.W movq rax,[r8+0x27]
00007FF5BD64647F   93f  493b8598010000       REX.W cmpq rax,[r13+0x198] (root (the_hole_value))
00007FF5BD646486   946  0f8522000000         jnz 00007FF5BD6464AE  <+0x96e>
00007FF5BD64648C   94c  488b75f8             REX.W movq rsi,[rbp-0x8]
00007FF5BD646490   950  49baf967e4be23010000 REX.W movq r10,00000123BEE467F9    ;; object: 0x0123bee467f9 <String[25]: #StringPrototypeCharCodeAt>
00007FF5BD64649A   95a  4152                 push r10
00007FF5BD64649C   95c  b801000000           movl rax,0000000000000001
00007FF5BD6464A1   961  488b1dddf7ffff       REX.W movq rbx,[rip+0xfffff7dd]
00007FF5BD6464A8   968  e8e7fdeb7f           call 00007FF63D506294  (CEntry_Return1_ArgvOnStack_NoBuiltinExit)    ;; near builtin entry
00007FF5BD6464AD   96d  cc                   int3l
00007FF5BD6464AE   96e  48898550ffffff       REX.W movq [rbp-0xb0],rax
00007FF5BD6464B5   975  488b8550ffffff       REX.W movq rax,[rbp-0xb0]
00007FF5BD6464BC   97c  bb03320000           movl rbx,0000000000003203
00007FF5BD6464C1   981  ffb570ffffff         push [rbp-0x90]
00007FF5BD6464C7   987  ff75a0               push [rbp-0x60]
00007FF5BD6464CA   98a  41ffb590010000       push [r13+0x190] (root (undefined_value))
00007FF5BD6464D1   991  e8fe75e27f           call 00007FF63D46DAD4  (Call_ReceiverIsNullOrUndefined_Baseline_Compact)    ;; near builtin entry
00007FF5BD6464D6   996  48898550ffffff       REX.W movq [rbp-0xb0],rax
00007FF5BD6464DD   99d  488b8558ffffff       REX.W movq rax,[rbp-0xa8]
00007FF5BD6464E4   9a4  bb02340000           movl rbx,0000000000003402
00007FF5BD6464E9   9a9  ffb550ffffff         push [rbp-0xb0]
00007FF5BD6464EF   9af  41ffb590010000       push [r13+0x190] (root (undefined_value))
00007FF5BD6464F6   9b6  e8d975e27f           call 00007FF63D46DAD4  (Call_ReceiverIsNullOrUndefined_Baseline_Compact)    ;; near builtin entry
00007FF5BD6464FB   9bb  e85450f07f           call 00007FF63D54B554  (ToBooleanForBaselineJump)    ;; near builtin entry
00007FF5BD646500   9c0  4885d2               REX.W testq rdx,rdx
00007FF5BD646503   9c3  7412                 jz 00007FF5BD646517  <+0x9d7>
00007FF5BD646505   9c5  4c8b45f0             REX.W movq r8,[rbp-0x10]
00007FF5BD646509   9c9  4d8b4027             REX.W movq r8,[r8+0x27]
00007FF5BD64650D   9cd  4183400f09           addl [r8+0xf],0x9
00007FF5BD646512   9d2  e997000000           jmp 00007FF5BD6465AE  <+0xa6e>
00007FF5BD646517   9d7  488b8570ffffff       REX.W movq rax,[rbp-0x90]
00007FF5BD64651E   9de  bb36000000           movl rbx,0000000000000036
00007FF5BD646523   9e3  e8eccfe97f           call 00007FF63D4E3514  (Increment_Baseline)    ;; near builtin entry
00007FF5BD646528   9e8  48898570ffffff       REX.W movq [rbp-0x90],rax
00007FF5BD64652F   9ef  4c8b45d8             REX.W movq r8,[rbp-0x28]
00007FF5BD646533   9f3  458a4814             movb r9l,[r8+0x14]
00007FF5BD646537   9f7  4180f901             cmpb r9l,0x1
00007FF5BD64653B   9fb  7735                 ja 00007FF5BD646572  <+0xa32>
00007FF5BD64653D   9fd  4c8b45f0             REX.W movq r8,[rbp-0x10]
00007FF5BD646541   a01  4d8b4027             REX.W movq r8,[r8+0x27]
00007FF5BD646545   a05  4183400fda           addl [r8+0xf],0xda
00007FF5BD64654A   a0a  0f8de5feffff         jge 00007FF5BD646435  <+0x8f5>
00007FF5BD646550   a10  50                   push rax
00007FF5BD646551   a11  488b75f8             REX.W movq rsi,[rbp-0x8]
00007FF5BD646555   a15  ff75f0               push [rbp-0x10]
00007FF5BD646558   a18  b801000000           movl rax,0000000000000001
00007FF5BD64655D   a1d  48bb9021f83cf67f0000 REX.W movq rbx,00007FF63CF82190
00007FF5BD646567   a27  e828fdeb7f           call 00007FF63D506294  (CEntry_Return1_ArgvOnStack_NoBuiltinExit)    ;; near builtin entry
00007FF5BD64656C   a2c  58                   pop rax
00007FF5BD64656D   a2d  e9c3feffff           jmp 00007FF5BD646435  <+0x8f5>
00007FF5BD646572   a32  498b80ef010000       REX.W movq rax,[r8+0x1ef]
00007FF5BD646579   a39  83f803               cmpl rax,0x3
00007FF5BD64657C   a3c  0f8415000000         jz 00007FF5BD646597  <+0xa57>
00007FF5BD646582   a42  4883e0fd             REX.W andq rax,0xfd
00007FF5BD646586   a46  f6403501             testb [rax+0x35],0x1
00007FF5BD64658A   a4a  7417                 jz 00007FF5BD6465A3  <+0xa63>
00007FF5BD64658C   a4c  49c780ef01000003000000 REX.W movq [r8+0x1ef],0x3
00007FF5BD646597   a57  33c0                 xorl rax,rax
00007FF5BD646599   a59  4983e107             REX.W andq r9,0x7
00007FF5BD64659D   a5d  4180f901             cmpb r9l,0x1
00007FF5BD6465A1   a61  769a                 jna 00007FF5BD64653D  <+0x9fd>
00007FF5BD6465A3   a63  488b75f8             REX.W movq rsi,[rbp-0x8]
00007FF5BD6465A7   a67  e8e81fe37f           call 00007FF63D478594  (BaselineOnStackReplacement)    ;; near builtin entry
00007FF5BD6465AC   a6c  eb8f                 jmp 00007FF5BD64653D  <+0x9fd>
00007FF5BD6465AE   a6e  488b4598             REX.W movq rax,[rbp-0x68]
00007FF5BD6465B2   a72  488b9570ffffff       REX.W movq rdx,[rbp-0x90]
00007FF5BD6465B9   a79  bb38000000           movl rbx,0000000000000038
00007FF5BD6465BE   a7e  e89191e97f           call 00007FF63D4DF754  (LessThan_Baseline)    ;; near builtin entry
00007FF5BD6465C3   a83  493b85b0010000       REX.W cmpq rax,[r13+0x1b0] (root (false_value))
00007FF5BD6465CA   a8a  7515                 jnz 00007FF5BD6465E1  <+0xaa1>
00007FF5BD6465CC   a8c  4c8b45f0             REX.W movq r8,[rbp-0x10]
00007FF5BD6465D0   a90  4d8b4027             REX.W movq r8,[r8+0x27]
00007FF5BD6465D4   a94  4181400fbb000000     addl [r8+0xf],0xbb
00007FF5BD6465DC   a9c  e9bf050000           jmp 00007FF5BD646BA0  <+0x1060>
00007FF5BD6465E1   aa1  488b8568ffffff       REX.W movq rax,[rbp-0x98]
00007FF5BD6465E8   aa8  488b9570ffffff       REX.W movq rdx,[rbp-0x90]
00007FF5BD6465EF   aaf  bb39000000           movl rbx,0000000000000039
00007FF5BD6465F4   ab4  e89b8ce97f           call 00007FF63D4DF294  (StrictEqual_Baseline)    ;; near builtin entry
00007FF5BD6465F9   ab9  493b85a8010000       REX.W cmpq rax,[r13+0x1a8] (root (true_value))
00007FF5BD646600   ac0  7515                 jnz 00007FF5BD646617  <+0xad7>
00007FF5BD646602   ac2  4c8b45f0             REX.W movq r8,[rbp-0x10]
00007FF5BD646606   ac6  4d8b4027             REX.W movq r8,[r8+0x27]
00007FF5BD64660A   aca  4181400fb4000000     addl [r8+0xf],0xb4
00007FF5BD646612   ad2  e989050000           jmp 00007FF5BD646BA0  <+0x1060>
00007FF5BD646617   ad7  4c8b45f8             REX.W movq r8,[rbp-0x8]
00007FF5BD64661B   adb  498b4047             REX.W movq rax,[r8+0x47]
00007FF5BD64661F   adf  493b8598010000       REX.W cmpq rax,[r13+0x198] (root (the_hole_value))
00007FF5BD646626   ae6  0f8522000000         jnz 00007FF5BD64664E  <+0xb0e>
00007FF5BD64662C   aec  488b75f8             REX.W movq rsi,[rbp-0x8]
00007FF5BD646630   af0  49ba4923e4be23010000 REX.W movq r10,00000123BEE42349    ;; object: 0x0123bee42349 <String[20]: #StringPrototypeSlice>
00007FF5BD64663A   afa  4152                 push r10
00007FF5BD64663C   afc  b801000000           movl rax,0000000000000001
00007FF5BD646641   b01  488b1d3df6ffff       REX.W movq rbx,[rip+0xfffff63d]
00007FF5BD646648   b08  e847fceb7f           call 00007FF63D506294  (CEntry_Return1_ArgvOnStack_NoBuiltinExit)    ;; near builtin entry
00007FF5BD64664D   b0d  cc                   int3l
00007FF5BD64664E   b0e  48898558ffffff       REX.W movq [rbp-0xa8],rax
00007FF5BD646655   b15  4c8b45a0             REX.W movq r8,[rbp-0x60]
00007FF5BD646659   b19  4c898550ffffff       REX.W movq [rbp-0xb0],r8
00007FF5BD646660   b20  4c8b8568ffffff       REX.W movq r8,[rbp-0x98]
00007FF5BD646667   b27  4c898548ffffff       REX.W movq [rbp-0xb8],r8
00007FF5BD64666E   b2e  4c8b8570ffffff       REX.W movq r8,[rbp-0x90]
00007FF5BD646675   b35  4c898540ffffff       REX.W movq [rbp-0xc0],r8
00007FF5BD64667C   b3c  488b8558ffffff       REX.W movq rax,[rbp-0xa8]
00007FF5BD646683   b43  bb043a0000           movl rbx,0000000000003A04
00007FF5BD646688   b48  ffb540ffffff         push [rbp-0xc0]
00007FF5BD64668E   b4e  ffb548ffffff         push [rbp-0xb8]
00007FF5BD646694   b54  ffb550ffffff         push [rbp-0xb0]
00007FF5BD64669A   b5a  41ffb590010000       push [r13+0x190] (root (undefined_value))
00007FF5BD6466A1   b61  e82e74e27f           call 00007FF63D46DAD4  (Call_ReceiverIsNullOrUndefined_Baseline_Compact)    ;; near builtin entry
00007FF5BD6466A6   b66  48898560ffffff       REX.W movq [rbp-0xa0],rax
00007FF5BD6466AD   b6d  4c8b8570ffffff       REX.W movq r8,[rbp-0x90]
00007FF5BD6466B4   b74  4c898568ffffff       REX.W movq [rbp-0x98],r8
00007FF5BD6466BB   b7b  488b8568ffffff       REX.W movq rax,[rbp-0x98]
00007FF5BD6466C2   b82  488b4598             REX.W movq rax,[rbp-0x68]
00007FF5BD6466C6   b86  488b9570ffffff       REX.W movq rdx,[rbp-0x90]
00007FF5BD6466CD   b8d  bb3c000000           movl rbx,000000000000003C
00007FF5BD6466D2   b92  e87d90e97f           call 00007FF63D4DF754  (LessThan_Baseline)    ;; near builtin entry
00007FF5BD6466D7   b97  493b85b0010000       REX.W cmpq rax,[r13+0x1b0] (root (false_value))
00007FF5BD6466DE   b9e  7512                 jnz 00007FF5BD6466F2  <+0xbb2>
00007FF5BD6466E0   ba0  4c8b45f0             REX.W movq r8,[rbp-0x10]
00007FF5BD6466E4   ba4  4d8b4027             REX.W movq r8,[r8+0x27]
00007FF5BD6466E8   ba8  4183400f1f           addl [r8+0xf],0x1f
00007FF5BD6466ED   bad  e946010000           jmp 00007FF5BD646838  <+0xcf8>
00007FF5BD6466F2   bb2  4c8b45f8             REX.W movq r8,[rbp-0x8]
00007FF5BD6466F6   bb6  498b80b7000000       REX.W movq rax,[r8+0xb7]
00007FF5BD6466FD   bbd  48898558ffffff       REX.W movq [rbp-0xa8],rax
00007FF5BD646704   bc4  4c8b45f8             REX.W movq r8,[rbp-0x8]
00007FF5BD646708   bc8  498b4027             REX.W movq rax,[r8+0x27]
00007FF5BD64670C   bcc  493b8598010000       REX.W cmpq rax,[r13+0x198] (root (the_hole_value))
00007FF5BD646713   bd3  0f8522000000         jnz 00007FF5BD64673B  <+0xbfb>
00007FF5BD646719   bd9  488b75f8             REX.W movq rsi,[rbp-0x8]
00007FF5BD64671D   bdd  49baf967e4be23010000 REX.W movq r10,00000123BEE467F9    ;; object: 0x0123bee467f9 <String[25]: #StringPrototypeCharCodeAt>
00007FF5BD646727   be7  4152                 push r10
00007FF5BD646729   be9  b801000000           movl rax,0000000000000001
00007FF5BD64672E   bee  488b1d50f5ffff       REX.W movq rbx,[rip+0xfffff550]
00007FF5BD646735   bf5  e85afbeb7f           call 00007FF63D506294  (CEntry_Return1_ArgvOnStack_NoBuiltinExit)    ;; near builtin entry
00007FF5BD64673A   bfa  cc                   int3l
00007FF5BD64673B   bfb  48898550ffffff       REX.W movq [rbp-0xb0],rax
00007FF5BD646742   c02  488b8550ffffff       REX.W movq rax,[rbp-0xb0]
00007FF5BD646749   c09  bb033d0000           movl rbx,0000000000003D03
00007FF5BD64674E   c0e  ffb570ffffff         push [rbp-0x90]
00007FF5BD646754   c14  ff75a0               push [rbp-0x60]
00007FF5BD646757   c17  41ffb590010000       push [r13+0x190] (root (undefined_value))
00007FF5BD64675E   c1e  e87173e27f           call 00007FF63D46DAD4  (Call_ReceiverIsNullOrUndefined_Baseline_Compact)    ;; near builtin entry
00007FF5BD646763   c23  48898550ffffff       REX.W movq [rbp-0xb0],rax
00007FF5BD64676A   c2a  488b8558ffffff       REX.W movq rax,[rbp-0xa8]
00007FF5BD646771   c31  bb023f0000           movl rbx,0000000000003F02
00007FF5BD646776   c36  ffb550ffffff         push [rbp-0xb0]
00007FF5BD64677C   c3c  41ffb590010000       push [r13+0x190] (root (undefined_value))
00007FF5BD646783   c43  e84c73e27f           call 00007FF63D46DAD4  (Call_ReceiverIsNullOrUndefined_Baseline_Compact)    ;; near builtin entry
00007FF5BD646788   c48  e8c74df07f           call 00007FF63D54B554  (ToBooleanForBaselineJump)    ;; near builtin entry
00007FF5BD64678D   c4d  4885d2               REX.W testq rdx,rdx
00007FF5BD646790   c50  7512                 jnz 00007FF5BD6467A4  <+0xc64>
00007FF5BD646792   c52  4c8b45f0             REX.W movq r8,[rbp-0x10]
00007FF5BD646796   c56  4d8b4027             REX.W movq r8,[r8+0x27]
00007FF5BD64679A   c5a  4183400f09           addl [r8+0xf],0x9
00007FF5BD64679F   c5f  e994000000           jmp 00007FF5BD646838  <+0xcf8>
00007FF5BD6467A4   c64  488b8570ffffff       REX.W movq rax,[rbp-0x90]
00007FF5BD6467AB   c6b  bb41000000           movl rbx,0000000000000041
00007FF5BD6467B0   c70  e85fcde97f           call 00007FF63D4E3514  (Increment_Baseline)    ;; near builtin entry
00007FF5BD6467B5   c75  48898570ffffff       REX.W movq [rbp-0x90],rax
00007FF5BD6467BC   c7c  4c8b45d8             REX.W movq r8,[rbp-0x28]
00007FF5BD6467C0   c80  458a4814             movb r9l,[r8+0x14]
00007FF5BD6467C4   c84  4180f901             cmpb r9l,0x1
00007FF5BD6467C8   c88  7732                 ja 00007FF5BD6467FC  <+0xcbc>
00007FF5BD6467CA   c8a  4c8b45f0             REX.W movq r8,[rbp-0x10]
00007FF5BD6467CE   c8e  4d8b4027             REX.W movq r8,[r8+0x27]
00007FF5BD6467D2   c92  4183400fda           addl [r8+0xf],0xda
00007FF5BD6467D7   c97  0f8de5feffff         jge 00007FF5BD6466C2  <+0xb82>
00007FF5BD6467DD   c9d  50                   push rax
00007FF5BD6467DE   c9e  488b75f8             REX.W movq rsi,[rbp-0x8]
00007FF5BD6467E2   ca2  ff75f0               push [rbp-0x10]
00007FF5BD6467E5   ca5  b801000000           movl rax,0000000000000001
00007FF5BD6467EA   caa  488b1d6efdffff       REX.W movq rbx,[rip+0xfffffd6e]
00007FF5BD6467F1   cb1  e89efaeb7f           call 00007FF63D506294  (CEntry_Return1_ArgvOnStack_NoBuiltinExit)    ;; near builtin entry
00007FF5BD6467F6   cb6  58                   pop rax
00007FF5BD6467F7   cb7  e9c6feffff           jmp 00007FF5BD6466C2  <+0xb82>
00007FF5BD6467FC   cbc  498b8047020000       REX.W movq rax,[r8+0x247]
00007FF5BD646803   cc3  83f803               cmpl rax,0x3
00007FF5BD646806   cc6  0f8415000000         jz 00007FF5BD646821  <+0xce1>
00007FF5BD64680C   ccc  4883e0fd             REX.W andq rax,0xfd
00007FF5BD646810   cd0  f6403501             testb [rax+0x35],0x1
00007FF5BD646814   cd4  7417                 jz 00007FF5BD64682D  <+0xced>
00007FF5BD646816   cd6  49c7804702000003000000 REX.W movq [r8+0x247],0x3
00007FF5BD646821   ce1  33c0                 xorl rax,rax
00007FF5BD646823   ce3  4983e107             REX.W andq r9,0x7
00007FF5BD646827   ce7  4180f901             cmpb r9l,0x1
00007FF5BD64682B   ceb  769d                 jna 00007FF5BD6467CA  <+0xc8a>
00007FF5BD64682D   ced  488b75f8             REX.W movq rsi,[rbp-0x8]
00007FF5BD646831   cf1  e85e1de37f           call 00007FF63D478594  (BaselineOnStackReplacement)    ;; near builtin entry
00007FF5BD646836   cf6  eb92                 jmp 00007FF5BD6467CA  <+0xc8a>
00007FF5BD646838   cf8  488b4598             REX.W movq rax,[rbp-0x68]
00007FF5BD64683C   cfc  488b9570ffffff       REX.W movq rdx,[rbp-0x90]
00007FF5BD646843   d03  bb43000000           movl rbx,0000000000000043
00007FF5BD646848   d08  e8078fe97f           call 00007FF63D4DF754  (LessThan_Baseline)    ;; near builtin entry
00007FF5BD64684D   d0d  493b85b0010000       REX.W cmpq rax,[r13+0x1b0] (root (false_value))
00007FF5BD646854   d14  7512                 jnz 00007FF5BD646868  <+0xd28>
00007FF5BD646856   d16  4c8b45f0             REX.W movq r8,[rbp-0x10]
00007FF5BD64685A   d1a  4d8b4027             REX.W movq r8,[r8+0x27]
00007FF5BD64685E   d1e  4183400f6e           addl [r8+0xf],0x6e
00007FF5BD646863   d23  e938030000           jmp 00007FF5BD646BA0  <+0x1060>
00007FF5BD646868   d28  488b8568ffffff       REX.W movq rax,[rbp-0x98]
00007FF5BD64686F   d2f  488b9570ffffff       REX.W movq rdx,[rbp-0x90]
00007FF5BD646876   d36  bb44000000           movl rbx,0000000000000044
00007FF5BD64687B   d3b  e8148ae97f           call 00007FF63D4DF294  (StrictEqual_Baseline)    ;; near builtin entry
00007FF5BD646880   d40  493b85a8010000       REX.W cmpq rax,[r13+0x1a8] (root (true_value))
00007FF5BD646887   d47  7512                 jnz 00007FF5BD64689B  <+0xd5b>
00007FF5BD646889   d49  4c8b45f0             REX.W movq r8,[rbp-0x10]
00007FF5BD64688D   d4d  4d8b4027             REX.W movq r8,[r8+0x27]
00007FF5BD646891   d51  4183400f67           addl [r8+0xf],0x67
00007FF5BD646896   d56  e905030000           jmp 00007FF5BD646BA0  <+0x1060>
00007FF5BD64689B   d5b  4c8b8570ffffff       REX.W movq r8,[rbp-0x90]
00007FF5BD6468A2   d62  4c898568ffffff       REX.W movq [rbp-0x98],r8
00007FF5BD6468A9   d69  488b8568ffffff       REX.W movq rax,[rbp-0x98]
00007FF5BD6468B0   d70  488b4598             REX.W movq rax,[rbp-0x68]
00007FF5BD6468B4   d74  488b9570ffffff       REX.W movq rdx,[rbp-0x90]
00007FF5BD6468BB   d7b  bb45000000           movl rbx,0000000000000045
00007FF5BD6468C0   d80  e88f8ee97f           call 00007FF63D4DF754  (LessThan_Baseline)    ;; near builtin entry
00007FF5BD6468C5   d85  493b85b0010000       REX.W cmpq rax,[r13+0x1b0] (root (false_value))
00007FF5BD6468CC   d8c  7512                 jnz 00007FF5BD6468E0  <+0xda0>
00007FF5BD6468CE   d8e  4c8b45f0             REX.W movq r8,[rbp-0x10]
00007FF5BD6468D2   d92  4d8b4027             REX.W movq r8,[r8+0x27]
00007FF5BD6468D6   d96  4183400f1f           addl [r8+0xf],0x1f
00007FF5BD6468DB   d9b  e946010000           jmp 00007FF5BD646A26  <+0xee6>
00007FF5BD6468E0   da0  4c8b45f8             REX.W movq r8,[rbp-0x8]
00007FF5BD6468E4   da4  498b80b7000000       REX.W movq rax,[r8+0xb7]
00007FF5BD6468EB   dab  48898558ffffff       REX.W movq [rbp-0xa8],rax
00007FF5BD6468F2   db2  4c8b45f8             REX.W movq r8,[rbp-0x8]
00007FF5BD6468F6   db6  498b4027             REX.W movq rax,[r8+0x27]
00007FF5BD6468FA   dba  493b8598010000       REX.W cmpq rax,[r13+0x198] (root (the_hole_value))
00007FF5BD646901   dc1  0f8522000000         jnz 00007FF5BD646929  <+0xde9>
00007FF5BD646907   dc7  488b75f8             REX.W movq rsi,[rbp-0x8]
00007FF5BD64690B   dcb  49baf967e4be23010000 REX.W movq r10,00000123BEE467F9    ;; object: 0x0123bee467f9 <String[25]: #StringPrototypeCharCodeAt>
00007FF5BD646915   dd5  4152                 push r10
00007FF5BD646917   dd7  b801000000           movl rax,0000000000000001
00007FF5BD64691C   ddc  488b1d62f3ffff       REX.W movq rbx,[rip+0xfffff362]
00007FF5BD646923   de3  e86cf9eb7f           call 00007FF63D506294  (CEntry_Return1_ArgvOnStack_NoBuiltinExit)    ;; near builtin entry
00007FF5BD646928   de8  cc                   int3l
00007FF5BD646929   de9  48898550ffffff       REX.W movq [rbp-0xb0],rax
00007FF5BD646930   df0  488b8550ffffff       REX.W movq rax,[rbp-0xb0]
00007FF5BD646937   df7  bb03460000           movl rbx,0000000000004603
00007FF5BD64693C   dfc  ffb570ffffff         push [rbp-0x90]
00007FF5BD646942   e02  ff75a0               push [rbp-0x60]
00007FF5BD646945   e05  41ffb590010000       push [r13+0x190] (root (undefined_value))
00007FF5BD64694C   e0c  e88371e27f           call 00007FF63D46DAD4  (Call_ReceiverIsNullOrUndefined_Baseline_Compact)    ;; near builtin entry
00007FF5BD646951   e11  48898550ffffff       REX.W movq [rbp-0xb0],rax
00007FF5BD646958   e18  488b8558ffffff       REX.W movq rax,[rbp-0xa8]
00007FF5BD64695F   e1f  bb02480000           movl rbx,0000000000004802
00007FF5BD646964   e24  ffb550ffffff         push [rbp-0xb0]
00007FF5BD64696A   e2a  41ffb590010000       push [r13+0x190] (root (undefined_value))
00007FF5BD646971   e31  e85e71e27f           call 00007FF63D46DAD4  (Call_ReceiverIsNullOrUndefined_Baseline_Compact)    ;; near builtin entry
00007FF5BD646976   e36  e8d94bf07f           call 00007FF63D54B554  (ToBooleanForBaselineJump)    ;; near builtin entry
00007FF5BD64697B   e3b  4885d2               REX.W testq rdx,rdx
00007FF5BD64697E   e3e  7412                 jz 00007FF5BD646992  <+0xe52>
00007FF5BD646980   e40  4c8b45f0             REX.W movq r8,[rbp-0x10]
00007FF5BD646984   e44  4d8b4027             REX.W movq r8,[r8+0x27]
00007FF5BD646988   e48  4183400f09           addl [r8+0xf],0x9
00007FF5BD64698D   e4d  e994000000           jmp 00007FF5BD646A26  <+0xee6>
00007FF5BD646992   e52  488b8570ffffff       REX.W movq rax,[rbp-0x90]
00007FF5BD646999   e59  bb4a000000           movl rbx,000000000000004A
00007FF5BD64699E   e5e  e871cbe97f           call 00007FF63D4E3514  (Increment_Baseline)    ;; near builtin entry
00007FF5BD6469A3   e63  48898570ffffff       REX.W movq [rbp-0x90],rax
00007FF5BD6469AA   e6a  4c8b45d8             REX.W movq r8,[rbp-0x28]
00007FF5BD6469AE   e6e  458a4814             movb r9l,[r8+0x14]
00007FF5BD6469B2   e72  4180f901             cmpb r9l,0x1
00007FF5BD6469B6   e76  7732                 ja 00007FF5BD6469EA  <+0xeaa>
00007FF5BD6469B8   e78  4c8b45f0             REX.W movq r8,[rbp-0x10]
00007FF5BD6469BC   e7c  4d8b4027             REX.W movq r8,[r8+0x27]
00007FF5BD6469C0   e80  4183400fda           addl [r8+0xf],0xda
00007FF5BD6469C5   e85  0f8de5feffff         jge 00007FF5BD6468B0  <+0xd70>
00007FF5BD6469CB   e8b  50                   push rax
00007FF5BD6469CC   e8c  488b75f8             REX.W movq rsi,[rbp-0x8]
00007FF5BD6469D0   e90  ff75f0               push [rbp-0x10]
00007FF5BD6469D3   e93  b801000000           movl rax,0000000000000001
00007FF5BD6469D8   e98  488b1d80fbffff       REX.W movq rbx,[rip+0xfffffb80]
00007FF5BD6469DF   e9f  e8b0f8eb7f           call 00007FF63D506294  (CEntry_Return1_ArgvOnStack_NoBuiltinExit)    ;; near builtin entry
00007FF5BD6469E4   ea4  58                   pop rax
00007FF5BD6469E5   ea5  e9c6feffff           jmp 00007FF5BD6468B0  <+0xd70>
00007FF5BD6469EA   eaa  498b808f020000       REX.W movq rax,[r8+0x28f]
00007FF5BD6469F1   eb1  83f803               cmpl rax,0x3
00007FF5BD6469F4   eb4  0f8415000000         jz 00007FF5BD646A0F  <+0xecf>
00007FF5BD6469FA   eba  4883e0fd             REX.W andq rax,0xfd
00007FF5BD6469FE   ebe  f6403501             testb [rax+0x35],0x1
00007FF5BD646A02   ec2  7417                 jz 00007FF5BD646A1B  <+0xedb>
00007FF5BD646A04   ec4  49c7808f02000003000000 REX.W movq [r8+0x28f],0x3
00007FF5BD646A0F   ecf  33c0                 xorl rax,rax
00007FF5BD646A11   ed1  4983e107             REX.W andq r9,0x7
00007FF5BD646A15   ed5  4180f901             cmpb r9l,0x1
00007FF5BD646A19   ed9  769d                 jna 00007FF5BD6469B8  <+0xe78>
00007FF5BD646A1B   edb  488b75f8             REX.W movq rsi,[rbp-0x8]
00007FF5BD646A1F   edf  e8701be37f           call 00007FF63D478594  (BaselineOnStackReplacement)    ;; near builtin entry
00007FF5BD646A24   ee4  eb92                 jmp 00007FF5BD6469B8  <+0xe78>
00007FF5BD646A26   ee6  488b4598             REX.W movq rax,[rbp-0x68]
00007FF5BD646A2A   eea  488b9570ffffff       REX.W movq rdx,[rbp-0x90]
00007FF5BD646A31   ef1  bb4c000000           movl rbx,000000000000004C
00007FF5BD646A36   ef6  e85988e97f           call 00007FF63D4DF294  (StrictEqual_Baseline)    ;; near builtin entry
00007FF5BD646A3B   efb  493b85a8010000       REX.W cmpq rax,[r13+0x1a8] (root (true_value))
00007FF5BD646A42   f02  7512                 jnz 00007FF5BD646A56  <+0xf16>
00007FF5BD646A44   f04  4c8b45f0             REX.W movq r8,[rbp-0x10]
00007FF5BD646A48   f08  4d8b4027             REX.W movq r8,[r8+0x27]
00007FF5BD646A4C   f0c  4183400f07           addl [r8+0xf],0x7
00007FF5BD646A51   f11  e933000000           jmp 00007FF5BD646A89  <+0xf49>
00007FF5BD646A56   f16  488b8568ffffff       REX.W movq rax,[rbp-0x98]
00007FF5BD646A5D   f1d  488b9570ffffff       REX.W movq rdx,[rbp-0x90]
00007FF5BD646A64   f24  bb4d000000           movl rbx,000000000000004D
00007FF5BD646A69   f29  e82688e97f           call 00007FF63D4DF294  (StrictEqual_Baseline)    ;; near builtin entry
00007FF5BD646A6E   f2e  493b85a8010000       REX.W cmpq rax,[r13+0x1a8] (root (true_value))
00007FF5BD646A75   f35  7512                 jnz 00007FF5BD646A89  <+0xf49>
00007FF5BD646A77   f37  4c8b45f0             REX.W movq r8,[rbp-0x10]
00007FF5BD646A7B   f3b  4d8b4027             REX.W movq r8,[r8+0x27]
00007FF5BD646A7F   f3f  4183400f2e           addl [r8+0xf],0x2e
00007FF5BD646A84   f44  e917010000           jmp 00007FF5BD646BA0  <+0x1060>
00007FF5BD646A89   f49  48b80104e6be23010000 REX.W movq rax,00000123BEE60401    ;; object: 0x0123bee60401 <String[2]: #\\\\>
00007FF5BD646A93   f53  48898558ffffff       REX.W movq [rbp-0xa8],rax
00007FF5BD646A9A   f5a  488b8560ffffff       REX.W movq rax,[rbp-0xa0]
00007FF5BD646AA1   f61  488b75f8             REX.W movq rsi,[rbp-0x8]
00007FF5BD646AA5   f65  e82af6ef7f           call 00007FF63D5460D4  (ToString)    ;; near builtin entry
00007FF5BD646AAA   f6a  488b9558ffffff       REX.W movq rdx,[rbp-0xa8]
00007FF5BD646AB1   f71  bb4e000000           movl rbx,000000000000004E
00007FF5BD646AB6   f76  e859e1e87f           call 00007FF63D4D4C14  (Add_Baseline)    ;; near builtin entry
00007FF5BD646ABB   f7b  48898558ffffff       REX.W movq [rbp-0xa8],rax
00007FF5BD646AC2   f82  48b82136f06366030000 REX.W movq rax,0000036663F03621    ;; object: 0x036663f03621 <String[1]: #\\>
00007FF5BD646ACC   f8c  488b9558ffffff       REX.W movq rdx,[rbp-0xa8]
00007FF5BD646AD3   f93  bb4e000000           movl rbx,000000000000004E
00007FF5BD646AD8   f98  e837e1e87f           call 00007FF63D4D4C14  (Add_Baseline)    ;; near builtin entry
00007FF5BD646ADD   f9d  48898558ffffff       REX.W movq [rbp-0xa8],rax
00007FF5BD646AE4   fa4  4c8b45f8             REX.W movq r8,[rbp-0x8]
00007FF5BD646AE8   fa8  498b4047             REX.W movq rax,[r8+0x47]
00007FF5BD646AEC   fac  493b8598010000       REX.W cmpq rax,[r13+0x198] (root (the_hole_value))
00007FF5BD646AF3   fb3  0f8522000000         jnz 00007FF5BD646B1B  <+0xfdb>
00007FF5BD646AF9   fb9  488b75f8             REX.W movq rsi,[rbp-0x8]
00007FF5BD646AFD   fbd  49ba4923e4be23010000 REX.W movq r10,00000123BEE42349    ;; object: 0x0123bee42349 <String[20]: #StringPrototypeSlice>
00007FF5BD646B07   fc7  4152                 push r10
00007FF5BD646B09   fc9  b801000000           movl rax,0000000000000001
00007FF5BD646B0E   fce  488b1d70f1ffff       REX.W movq rbx,[rip+0xfffff170]
00007FF5BD646B15   fd5  e87af7eb7f           call 00007FF63D506294  (CEntry_Return1_ArgvOnStack_NoBuiltinExit)    ;; near builtin entry
00007FF5BD646B1A   fda  cc                   int3l
00007FF5BD646B1B   fdb  48898550ffffff       REX.W movq [rbp-0xb0],rax
00007FF5BD646B22   fe2  4c8b45a0             REX.W movq r8,[rbp-0x60]
00007FF5BD646B26   fe6  4c898548ffffff       REX.W movq [rbp-0xb8],r8
00007FF5BD646B2D   fed  4c8b8568ffffff       REX.W movq r8,[rbp-0x98]
00007FF5BD646B34   ff4  4c898540ffffff       REX.W movq [rbp-0xc0],r8
00007FF5BD646B3B   ffb  4c8b8570ffffff       REX.W movq r8,[rbp-0x90]
00007FF5BD646B42  1002  4c898538ffffff       REX.W movq [rbp-0xc8],r8
00007FF5BD646B49  1009  488b8550ffffff       REX.W movq rax,[rbp-0xb0]
00007FF5BD646B50  1010  bb044f0000           movl rbx,0000000000004F04
00007FF5BD646B55  1015  ffb538ffffff         push [rbp-0xc8]
00007FF5BD646B5B  101b  ffb540ffffff         push [rbp-0xc0]
00007FF5BD646B61  1021  ffb548ffffff         push [rbp-0xb8]
00007FF5BD646B67  1027  41ffb590010000       push [r13+0x190] (root (undefined_value))
00007FF5BD646B6E  102e  e8616fe27f           call 00007FF63D46DAD4  (Call_ReceiverIsNullOrUndefined_Baseline_Compact)    ;; near builtin entry
00007FF5BD646B73  1033  488b75f8             REX.W movq rsi,[rbp-0x8]
00007FF5BD646B77  1037  e858f5ef7f           call 00007FF63D5460D4  (ToString)    ;; near builtin entry
00007FF5BD646B7C  103c  488b9558ffffff       REX.W movq rdx,[rbp-0xa8]
00007FF5BD646B83  1043  bb4e000000           movl rbx,000000000000004E
00007FF5BD646B88  1048  e887e0e87f           call 00007FF63D4D4C14  (Add_Baseline)    ;; near builtin entry
00007FF5BD646B8D  104d  48894588             REX.W movq [rbp-0x78],rax
00007FF5BD646B91  1051  4c8b8570ffffff       REX.W movq r8,[rbp-0x90]
00007FF5BD646B98  1058  4c894590             REX.W movq [rbp-0x70],r8
00007FF5BD646B9C  105c  488b4590             REX.W movq rax,[rbp-0x70]
00007FF5BD646BA0  1060  4c8b45f0             REX.W movq r8,[rbp-0x10]
00007FF5BD646BA4  1064  4d8b4027             REX.W movq r8,[r8+0x27]
00007FF5BD646BA8  1068  4183400f03           addl [r8+0xf],0x3
00007FF5BD646BAD  106d  e90b000000           jmp 00007FF5BD646BBD  <+0x107d>
00007FF5BD646BB2  1072  488b0508f0ffff       REX.W movq rax,[rip+0xfffff008]
00007FF5BD646BB9  1079  48894590             REX.W movq [rbp-0x70],rax
00007FF5BD646BBD  107d  4c8b45f0             REX.W movq r8,[rbp-0x10]
00007FF5BD646BC1  1081  4d8b4027             REX.W movq r8,[r8+0x27]
00007FF5BD646BC5  1085  4183400f5f           addl [r8+0xf],0x5f
00007FF5BD646BCA  108a  e9c8020000           jmp 00007FF5BD646E97  <+0x1357>
00007FF5BD646BCF  108f  4c8b45f8             REX.W movq r8,[rbp-0x8]
00007FF5BD646BD3  1093  498b80c7000000       REX.W movq rax,[r8+0xc7]
00007FF5BD646BDA  109a  48898558ffffff       REX.W movq [rbp-0xa8],rax
00007FF5BD646BE1  10a1  488b8558ffffff       REX.W movq rax,[rbp-0xa8]
00007FF5BD646BE8  10a8  bb02510000           movl rbx,0000000000005102
00007FF5BD646BED  10ad  ffb578ffffff         push [rbp-0x88]
00007FF5BD646BF3  10b3  41ffb590010000       push [r13+0x190] (root (undefined_value))
00007FF5BD646BFA  10ba  e8d56ee27f           call 00007FF63D46DAD4  (Call_ReceiverIsNullOrUndefined_Baseline_Compact)    ;; near builtin entry
00007FF5BD646BFF  10bf  e85049f07f           call 00007FF63D54B554  (ToBooleanForBaselineJump)    ;; near builtin entry
00007FF5BD646C04  10c4  4885d2               REX.W testq rdx,rdx
00007FF5BD646C07  10c7  7512                 jnz 00007FF5BD646C1B  <+0x10db>
00007FF5BD646C09  10c9  4c8b45f0             REX.W movq r8,[rbp-0x10]
00007FF5BD646C0D  10cd  4d8b4027             REX.W movq r8,[r8+0x27]
00007FF5BD646C11  10d1  4183400f56           addl [r8+0xf],0x56
00007FF5BD646C16  10d6  e97c020000           jmp 00007FF5BD646E97  <+0x1357>
00007FF5BD646C1B  10db  4c8b45f8             REX.W movq r8,[rbp-0x8]
00007FF5BD646C1F  10df  498b4027             REX.W movq rax,[r8+0x27]
00007FF5BD646C23  10e3  493b8598010000       REX.W cmpq rax,[r13+0x198] (root (the_hole_value))
00007FF5BD646C2A  10ea  0f8522000000         jnz 00007FF5BD646C52  <+0x1112>
00007FF5BD646C30  10f0  488b75f8             REX.W movq rsi,[rbp-0x8]
00007FF5BD646C34  10f4  49baf967e4be23010000 REX.W movq r10,00000123BEE467F9    ;; object: 0x0123bee467f9 <String[25]: #StringPrototypeCharCodeAt>
00007FF5BD646C3E  10fe  4152                 push r10
00007FF5BD646C40  1100  b801000000           movl rax,0000000000000001
00007FF5BD646C45  1105  488b1d39f0ffff       REX.W movq rbx,[rip+0xfffff039]
00007FF5BD646C4C  110c  e843f6eb7f           call 00007FF63D506294  (CEntry_Return1_ArgvOnStack_NoBuiltinExit)    ;; near builtin entry
00007FF5BD646C51  1111  cc                   int3l
00007FF5BD646C52  1112  48898558ffffff       REX.W movq [rbp-0xa8],rax
00007FF5BD646C59  1119  488b0561efffff       REX.W movq rax,[rip+0xffffef61]
00007FF5BD646C60  1120  48898548ffffff       REX.W movq [rbp-0xb8],rax
00007FF5BD646C67  1127  488b8558ffffff       REX.W movq rax,[rbp-0xa8]
00007FF5BD646C6E  112e  bb03530000           movl rbx,0000000000005303
00007FF5BD646C73  1133  ffb548ffffff         push [rbp-0xb8]
00007FF5BD646C79  1139  ff75a0               push [rbp-0x60]
00007FF5BD646C7C  113c  41ffb590010000       push [r13+0x190] (root (undefined_value))
00007FF5BD646C83  1143  e84c6ee27f           call 00007FF63D46DAD4  (Call_ReceiverIsNullOrUndefined_Baseline_Compact)    ;; near builtin entry
00007FF5BD646C88  1148  48898558ffffff       REX.W movq [rbp-0xa8],rax
00007FF5BD646C8F  114f  4c8b45f8             REX.W movq r8,[rbp-0x8]
00007FF5BD646C93  1153  498b808f000000       REX.W movq rax,[r8+0x8f]
00007FF5BD646C9A  115a  493b8598010000       REX.W cmpq rax,[r13+0x198] (root (the_hole_value))
00007FF5BD646CA1  1161  0f8522000000         jnz 00007FF5BD646CC9  <+0x1189>
00007FF5BD646CA7  1167  488b75f8             REX.W movq rsi,[rbp-0x8]
00007FF5BD646CAB  116b  49bab9aee4be23010000 REX.W movq r10,00000123BEE4AEB9    ;; object: 0x0123bee4aeb9 <String[10]: #CHAR_COLON>
00007FF5BD646CB5  1175  4152                 push r10
00007FF5BD646CB7  1177  b801000000           movl rax,0000000000000001
00007FF5BD646CBC  117c  488b1dc2efffff       REX.W movq rbx,[rip+0xffffefc2]
00007FF5BD646CC3  1183  e8ccf5eb7f           call 00007FF63D506294  (CEntry_Return1_ArgvOnStack_NoBuiltinExit)    ;; near builtin entry
00007FF5BD646CC8  1188  cc                   int3l
00007FF5BD646CC9  1189  488b9558ffffff       REX.W movq rdx,[rbp-0xa8]
00007FF5BD646CD0  1190  bb55000000           movl rbx,0000000000000055
00007FF5BD646CD5  1195  e8ba85e97f           call 00007FF63D4DF294  (StrictEqual_Baseline)    ;; near builtin entry
00007FF5BD646CDA  119a  493b85b0010000       REX.W cmpq rax,[r13+0x1b0] (root (false_value))
00007FF5BD646CE1  11a1  7512                 jnz 00007FF5BD646CF5  <+0x11b5>
00007FF5BD646CE3  11a3  4c8b45f0             REX.W movq r8,[rbp-0x10]
00007FF5BD646CE7  11a7  4d8b4027             REX.W movq r8,[r8+0x27]
00007FF5BD646CEB  11ab  4183400f3e           addl [r8+0xf],0x3e
00007FF5BD646CF0  11b0  e9a2010000           jmp 00007FF5BD646E97  <+0x1357>
00007FF5BD646CF5  11b5  4c8b45f8             REX.W movq r8,[rbp-0x8]
00007FF5BD646CF9  11b9  498b4047             REX.W movq rax,[r8+0x47]
00007FF5BD646CFD  11bd  493b8598010000       REX.W cmpq rax,[r13+0x198] (root (the_hole_value))
00007FF5BD646D04  11c4  0f8522000000         jnz 00007FF5BD646D2C  <+0x11ec>
00007FF5BD646D0A  11ca  488b75f8             REX.W movq rsi,[rbp-0x8]
00007FF5BD646D0E  11ce  49ba4923e4be23010000 REX.W movq r10,00000123BEE42349    ;; object: 0x0123bee42349 <String[20]: #StringPrototypeSlice>
00007FF5BD646D18  11d8  4152                 push r10
00007FF5BD646D1A  11da  b801000000           movl rax,0000000000000001
00007FF5BD646D1F  11df  488b1d5fefffff       REX.W movq rbx,[rip+0xffffef5f]
00007FF5BD646D26  11e6  e869f5eb7f           call 00007FF63D506294  (CEntry_Return1_ArgvOnStack_NoBuiltinExit)    ;; near builtin entry
00007FF5BD646D2B  11eb  cc                   int3l
00007FF5BD646D2C  11ec  48898558ffffff       REX.W movq [rbp-0xa8],rax
00007FF5BD646D33  11f3  33c0                 xorl rax,rax
00007FF5BD646D35  11f5  48898548ffffff       REX.W movq [rbp-0xb8],rax
00007FF5BD646D3C  11fc  488b056df2ffff       REX.W movq rax,[rip+0xfffff26d]
00007FF5BD646D43  1203  48898540ffffff       REX.W movq [rbp-0xc0],rax
00007FF5BD646D4A  120a  4c8b45a0             REX.W movq r8,[rbp-0x60]
00007FF5BD646D4E  120e  4c898550ffffff       REX.W movq [rbp-0xb0],r8
00007FF5BD646D55  1215  488b8558ffffff       REX.W movq rax,[rbp-0xa8]
00007FF5BD646D5C  121c  bb04560000           movl rbx,0000000000005604
00007FF5BD646D61  1221  ffb540ffffff         push [rbp-0xc0]
00007FF5BD646D67  1227  ffb548ffffff         push [rbp-0xb8]
00007FF5BD646D6D  122d  ffb550ffffff         push [rbp-0xb0]
00007FF5BD646D73  1233  41ffb590010000       push [r13+0x190] (root (undefined_value))
00007FF5BD646D7A  123a  e8556de27f           call 00007FF63D46DAD4  (Call_ReceiverIsNullOrUndefined_Baseline_Compact)    ;; near builtin entry
00007FF5BD646D7F  123f  48894588             REX.W movq [rbp-0x78],rax
00007FF5BD646D83  1243  488b0526f2ffff       REX.W movq rax,[rip+0xfffff226]
00007FF5BD646D8A  124a  48894590             REX.W movq [rbp-0x70],rax
00007FF5BD646D8E  124e  488b051bf2ffff       REX.W movq rax,[rip+0xfffff21b]
00007FF5BD646D95  1255  488b5598             REX.W movq rdx,[rbp-0x68]
00007FF5BD646D99  1259  bb58000000           movl rbx,0000000000000058
00007FF5BD646D9E  125e  e8718fe97f           call 00007FF63D4DFD14  (GreaterThan_Baseline)    ;; near builtin entry
00007FF5BD646DA3  1263  493b85b0010000       REX.W cmpq rax,[r13+0x1b0] (root (false_value))
00007FF5BD646DAA  126a  7512                 jnz 00007FF5BD646DBE  <+0x127e>
00007FF5BD646DAC  126c  4c8b45f0             REX.W movq r8,[rbp-0x10]
00007FF5BD646DB0  1270  4d8b4027             REX.W movq r8,[r8+0x27]
00007FF5BD646DB4  1274  4183400f1f           addl [r8+0xf],0x1f
00007FF5BD646DB9  1279  e9d9000000           jmp 00007FF5BD646E97  <+0x1357>
00007FF5BD646DBE  127e  4c8b45f8             REX.W movq r8,[rbp-0x8]
00007FF5BD646DC2  1282  498b80b7000000       REX.W movq rax,[r8+0xb7]
00007FF5BD646DC9  1289  48898558ffffff       REX.W movq [rbp-0xa8],rax
00007FF5BD646DD0  1290  4c8b45f8             REX.W movq r8,[rbp-0x8]
00007FF5BD646DD4  1294  498b4027             REX.W movq rax,[r8+0x27]
00007FF5BD646DD8  1298  493b8598010000       REX.W cmpq rax,[r13+0x198] (root (the_hole_value))
00007FF5BD646DDF  129f  0f8522000000         jnz 00007FF5BD646E07  <+0x12c7>
00007FF5BD646DE5  12a5  488b75f8             REX.W movq rsi,[rbp-0x8]
00007FF5BD646DE9  12a9  49baf967e4be23010000 REX.W movq r10,00000123BEE467F9    ;; object: 0x0123bee467f9 <String[25]: #StringPrototypeCharCodeAt>
00007FF5BD646DF3  12b3  4152                 push r10
00007FF5BD646DF5  12b5  b801000000           movl rax,0000000000000001
00007FF5BD646DFA  12ba  488b1d84eeffff       REX.W movq rbx,[rip+0xffffee84]
00007FF5BD646E01  12c1  e88ef4eb7f           call 00007FF63D506294  (CEntry_Return1_ArgvOnStack_NoBuiltinExit)    ;; near builtin entry
00007FF5BD646E06  12c6  cc                   int3l
00007FF5BD646E07  12c7  48898550ffffff       REX.W movq [rbp-0xb0],rax
00007FF5BD646E0E  12ce  488b059bf1ffff       REX.W movq rax,[rip+0xfffff19b]
00007FF5BD646E15  12d5  48898540ffffff       REX.W movq [rbp-0xc0],rax
00007FF5BD646E1C  12dc  488b8550ffffff       REX.W movq rax,[rbp-0xb0]
00007FF5BD646E23  12e3  bb03590000           movl rbx,0000000000005903
00007FF5BD646E28  12e8  ffb540ffffff         push [rbp-0xc0]
00007FF5BD646E2E  12ee  ff75a0               push [rbp-0x60]
00007FF5BD646E31  12f1  41ffb590010000       push [r13+0x190] (root (undefined_value))
00007FF5BD646E38  12f8  e8976ce27f           call 00007FF63D46DAD4  (Call_ReceiverIsNullOrUndefined_Baseline_Compact)    ;; near builtin entry
00007FF5BD646E3D  12fd  48898550ffffff       REX.W movq [rbp-0xb0],rax
00007FF5BD646E44  1304  488b8558ffffff       REX.W movq rax,[rbp-0xa8]
00007FF5BD646E4B  130b  bb025b0000           movl rbx,0000000000005B02
00007FF5BD646E50  1310  ffb550ffffff         push [rbp-0xb0]
00007FF5BD646E56  1316  41ffb590010000       push [r13+0x190] (root (undefined_value))
00007FF5BD646E5D  131d  e8726ce27f           call 00007FF63D46DAD4  (Call_ReceiverIsNullOrUndefined_Baseline_Compact)    ;; near builtin entry
00007FF5BD646E62  1322  e8ed46f07f           call 00007FF63D54B554  (ToBooleanForBaselineJump)    ;; near builtin entry
00007FF5BD646E67  1327  4885d2               REX.W testq rdx,rdx
00007FF5BD646E6A  132a  7512                 jnz 00007FF5BD646E7E  <+0x133e>
00007FF5BD646E6C  132c  4c8b45f0             REX.W movq r8,[rbp-0x10]
00007FF5BD646E70  1330  4d8b4027             REX.W movq r8,[r8+0x27]
00007FF5BD646E74  1334  4183400f05           addl [r8+0xf],0x5
00007FF5BD646E79  1339  e919000000           jmp 00007FF5BD646E97  <+0x1357>
00007FF5BD646E7E  133e  498b85a8010000       REX.W movq rax,[r13+0x1a8] (root (true_value))
00007FF5BD646E85  1345  48894580             REX.W movq [rbp-0x80],rax
00007FF5BD646E89  1349  48b80000000003000000 REX.W movq rax,0000000300000000
00007FF5BD646E93  1353  48894590             REX.W movq [rbp-0x70],rax
00007FF5BD646E97  1357  488b5588             REX.W movq rdx,[rbp-0x78]
00007FF5BD646E9B  135b  48b99147f06366030000 REX.W movq rcx,0000036663F04791    ;; object: 0x036663f04791 <String[6]: #length>
00007FF5BD646EA5  1365  b8ba000000           movl rax,00000000000000BA
00007FF5BD646EAA  136a  e8e504e77f           call 00007FF63D4B7394  (LoadICBaseline)    ;; near builtin entry
00007FF5BD646EAF  136f  48898558ffffff       REX.W movq [rbp-0xa8],rax
00007FF5BD646EB6  1376  33c0                 xorl rax,rax
00007FF5BD646EB8  1378  488b9558ffffff       REX.W movq rdx,[rbp-0xa8]
00007FF5BD646EBF  137f  bb5f000000           movl rbx,000000000000005F
00007FF5BD646EC4  1384  e84b8ee97f           call 00007FF63D4DFD14  (GreaterThan_Baseline)    ;; near builtin entry
00007FF5BD646EC9  1389  493b85b0010000       REX.W cmpq rax,[r13+0x1b0] (root (false_value))
00007FF5BD646ED0  1390  7512                 jnz 00007FF5BD646EE4  <+0x13a4>
00007FF5BD646ED2  1392  4c8b45f0             REX.W movq r8,[rbp-0x10]
00007FF5BD646ED6  1396  4d8b4027             REX.W movq r8,[r8+0x27]
00007FF5BD646EDA  139a  4183400f2d           addl [r8+0xf],0x2d
00007FF5BD646EDF  139f  e962010000           jmp 00007FF5BD647046  <+0x1506>
00007FF5BD646EE4  13a4  488b55c0             REX.W movq rdx,[rbp-0x40]
00007FF5BD646EE8  13a8  48b99147f06366030000 REX.W movq rcx,0000036663F04791    ;; object: 0x036663f04791 <String[6]: #length>
00007FF5BD646EF2  13b2  b81a000000           movl rax,000000000000001A
00007FF5BD646EF7  13b7  e89804e77f           call 00007FF63D4B7394  (LoadICBaseline)    ;; near builtin entry
00007FF5BD646EFC  13bc  48898558ffffff       REX.W movq [rbp-0xa8],rax
00007FF5BD646F03  13c3  33c0                 xorl rax,rax
00007FF5BD646F05  13c5  488b9558ffffff       REX.W movq rdx,[rbp-0xa8]
00007FF5BD646F0C  13cc  bb60000000           movl rbx,0000000000000060
00007FF5BD646F11  13d1  e8fe8de97f           call 00007FF63D4DFD14  (GreaterThan_Baseline)    ;; near builtin entry
00007FF5BD646F16  13d6  493b85b0010000       REX.W cmpq rax,[r13+0x1b0] (root (false_value))
00007FF5BD646F1D  13dd  7512                 jnz 00007FF5BD646F31  <+0x13f1>
00007FF5BD646F1F  13df  4c8b45f0             REX.W movq r8,[rbp-0x10]
00007FF5BD646F23  13e3  4d8b4027             REX.W movq r8,[r8+0x27]
00007FF5BD646F27  13e7  4183400f1d           addl [r8+0xf],0x1d
00007FF5BD646F2C  13ec  e909010000           jmp 00007FF5BD64703A  <+0x14fa>
00007FF5BD646F31  13f1  4c8b45f8             REX.W movq r8,[rbp-0x8]
00007FF5BD646F35  13f5  498b404f             REX.W movq rax,[r8+0x4f]
00007FF5BD646F39  13f9  493b8598010000       REX.W cmpq rax,[r13+0x198] (root (the_hole_value))
00007FF5BD646F40  1400  0f8522000000         jnz 00007FF5BD646F68  <+0x1428>
00007FF5BD646F46  1406  488b75f8             REX.W movq rsi,[rbp-0x8]
00007FF5BD646F4A  140a  49ba512ce4be23010000 REX.W movq r10,00000123BEE42C51    ;; object: 0x0123bee42c51 <String[26]: #StringPrototypeToLowerCase>
00007FF5BD646F54  1414  4152                 push r10
00007FF5BD646F56  1416  b801000000           movl rax,0000000000000001
00007FF5BD646F5B  141b  488b1d23edffff       REX.W movq rbx,[rip+0xffffed23]
00007FF5BD646F62  1422  e82df3eb7f           call 00007FF63D506294  (CEntry_Return1_ArgvOnStack_NoBuiltinExit)    ;; near builtin entry
00007FF5BD646F67  1427  cc                   int3l
00007FF5BD646F68  1428  48898558ffffff       REX.W movq [rbp-0xa8],rax
00007FF5BD646F6F  142f  488b8558ffffff       REX.W movq rax,[rbp-0xa8]
00007FF5BD646F76  1436  bb02610000           movl rbx,0000000000006102
00007FF5BD646F7B  143b  ff7588               push [rbp-0x78]
00007FF5BD646F7E  143e  41ffb590010000       push [r13+0x190] (root (undefined_value))
00007FF5BD646F85  1445  e84a6be27f           call 00007FF63D46DAD4  (Call_ReceiverIsNullOrUndefined_Baseline_Compact)    ;; near builtin entry
00007FF5BD646F8A  144a  48898558ffffff       REX.W movq [rbp-0xa8],rax
00007FF5BD646F91  1451  4c8b45f8             REX.W movq r8,[rbp-0x8]
00007FF5BD646F95  1455  498b404f             REX.W movq rax,[r8+0x4f]
00007FF5BD646F99  1459  493b8598010000       REX.W cmpq rax,[r13+0x198] (root (the_hole_value))
00007FF5BD646FA0  1460  0f8522000000         jnz 00007FF5BD646FC8  <+0x1488>
00007FF5BD646FA6  1466  488b75f8             REX.W movq rsi,[rbp-0x8]
00007FF5BD646FAA  146a  49ba512ce4be23010000 REX.W movq r10,00000123BEE42C51    ;; object: 0x0123bee42c51 <String[26]: #StringPrototypeToLowerCase>
00007FF5BD646FB4  1474  4152                 push r10
00007FF5BD646FB6  1476  b801000000           movl rax,0000000000000001
00007FF5BD646FBB  147b  488b1dc3ecffff       REX.W movq rbx,[rip+0xffffecc3]
00007FF5BD646FC2  1482  e8cdf2eb7f           call 00007FF63D506294  (CEntry_Return1_ArgvOnStack_NoBuiltinExit)    ;; near builtin entry
00007FF5BD646FC7  1487  cc                   int3l
00007FF5BD646FC8  1488  48898550ffffff       REX.W movq [rbp-0xb0],rax
00007FF5BD646FCF  148f  488b8550ffffff       REX.W movq rax,[rbp-0xb0]
00007FF5BD646FD6  1496  bb02630000           movl rbx,0000000000006302
00007FF5BD646FDB  149b  ff75c0               push [rbp-0x40]
00007FF5BD646FDE  149e  41ffb590010000       push [r13+0x190] (root (undefined_value))
00007FF5BD646FE5  14a5  e8ea6ae27f           call 00007FF63D46DAD4  (Call_ReceiverIsNullOrUndefined_Baseline_Compact)    ;; near builtin entry
00007FF5BD646FEA  14aa  488b9558ffffff       REX.W movq rdx,[rbp-0xa8]
00007FF5BD646FF1  14b1  bb65000000           movl rbx,0000000000000065
00007FF5BD646FF6  14b6  e89982e97f           call 00007FF63D4DF294  (StrictEqual_Baseline)    ;; near builtin entry
00007FF5BD646FFB  14bb  493b85a8010000       REX.W cmpq rax,[r13+0x1a8] (root (true_value))
00007FF5BD647002  14c2  7512                 jnz 00007FF5BD647016  <+0x14d6>
00007FF5BD647004  14c4  4c8b45f0             REX.W movq r8,[rbp-0x10]
00007FF5BD647008  14c8  4d8b4027             REX.W movq r8,[r8+0x27]
00007FF5BD64700C  14cc  4183400f02           addl [r8+0xf],0x2
00007FF5BD647011  14d1  e912000000           jmp 00007FF5BD647028  <+0x14e8>
00007FF5BD647016  14d6  4c8b45f0             REX.W movq r8,[rbp-0x10]
00007FF5BD64701A  14da  4d8b4027             REX.W movq r8,[r8+0x27]
00007FF5BD64701E  14de  4183400f48           addl [r8+0xf],0x48
00007FF5BD647023  14e3  e9e6010000           jmp 00007FF5BD64720E  <+0x16ce>
00007FF5BD647028  14e8  4c8b45f0             REX.W movq r8,[rbp-0x10]
00007FF5BD64702C  14ec  4d8b4027             REX.W movq r8,[r8+0x27]
00007FF5BD647030  14f0  4183400f05           addl [r8+0xf],0x5
00007FF5BD647035  14f5  e90c000000           jmp 00007FF5BD647046  <+0x1506>
00007FF5BD64703A  14fa  4c8b4588             REX.W movq r8,[rbp-0x78]
00007FF5BD64703E  14fe  4c8945c0             REX.W movq [rbp-0x40],r8
00007FF5BD647042  1502  488b45c0             REX.W movq rax,[rbp-0x40]
00007FF5BD647046  1506  488b45b0             REX.W movq rax,[rbp-0x50]
00007FF5BD64704A  150a  e80545f07f           call 00007FF63D54B554  (ToBooleanForBaselineJump)    ;; near builtin entry
00007FF5BD64704F  150f  4885d2               REX.W testq rdx,rdx
00007FF5BD647052  1512  7512                 jnz 00007FF5BD647066  <+0x1526>
00007FF5BD647054  1514  4c8b45f0             REX.W movq r8,[rbp-0x10]
00007FF5BD647058  1518  4d8b4027             REX.W movq r8,[r8+0x27]
00007FF5BD64705C  151c  4183400f0f           addl [r8+0xf],0xf
00007FF5BD647061  1521  e971000000           jmp 00007FF5BD6470D7  <+0x1597>
00007FF5BD647066  1526  488b55c0             REX.W movq rdx,[rbp-0x40]
00007FF5BD64706A  152a  48b99147f06366030000 REX.W movq rcx,0000036663F04791    ;; object: 0x036663f04791 <String[6]: #length>
00007FF5BD647074  1534  b81a000000           movl rax,000000000000001A
00007FF5BD647079  1539  e81603e77f           call 00007FF63D4B7394  (LoadICBaseline)    ;; near builtin entry
00007FF5BD64707E  153e  48898558ffffff       REX.W movq [rbp-0xa8],rax
00007FF5BD647085  1545  33c0                 xorl rax,rax
00007FF5BD647087  1547  488b9558ffffff       REX.W movq rdx,[rbp-0xa8]
00007FF5BD64708E  154e  bb66000000           movl rbx,0000000000000066
00007FF5BD647093  1553  e87c8ce97f           call 00007FF63D4DFD14  (GreaterThan_Baseline)    ;; near builtin entry
00007FF5BD647098  1558  493b85b0010000       REX.W cmpq rax,[r13+0x1b0] (root (false_value))
00007FF5BD64709F  155f  7512                 jnz 00007FF5BD6470B3  <+0x1573>
00007FF5BD6470A1  1561  4c8b45f0             REX.W movq r8,[rbp-0x10]
00007FF5BD6470A5  1565  4d8b4027             REX.W movq r8,[r8+0x27]
00007FF5BD6470A9  1569  4183400f02           addl [r8+0xf],0x2
00007FF5BD6470AE  156e  e912000000           jmp 00007FF5BD6470C5  <+0x1585>
00007FF5BD6470B3  1573  4c8b45f0             REX.W movq r8,[rbp-0x10]
00007FF5BD6470B7  1577  4d8b4027             REX.W movq r8,[r8+0x27]
00007FF5BD6470BB  157b  4183400f3d           addl [r8+0xf],0x3d
00007FF5BD6470C0  1580  e9da010000           jmp 00007FF5BD64729F  <+0x175f>
00007FF5BD6470C5  1585  4c8b45f0             REX.W movq r8,[rbp-0x10]
00007FF5BD6470C9  1589  4d8b4027             REX.W movq r8,[r8+0x27]
00007FF5BD6470CD  158d  4183400f2e           addl [r8+0xf],0x2e
00007FF5BD6470D2  1592  e937010000           jmp 00007FF5BD64720E  <+0x16ce>
00007FF5BD6470D7  1597  4c8b45f8             REX.W movq r8,[rbp-0x8]
00007FF5BD6470DB  159b  498b4047             REX.W movq rax,[r8+0x47]
00007FF5BD6470DF  159f  493b8598010000       REX.W cmpq rax,[r13+0x198] (root (the_hole_value))
00007FF5BD6470E6  15a6  0f8522000000         jnz 00007FF5BD64710E  <+0x15ce>
00007FF5BD6470EC  15ac  488b75f8             REX.W movq rsi,[rbp-0x8]
00007FF5BD6470F0  15b0  49ba4923e4be23010000 REX.W movq r10,00000123BEE42349    ;; object: 0x0123bee42349 <String[20]: #StringPrototypeSlice>
00007FF5BD6470FA  15ba  4152                 push r10
00007FF5BD6470FC  15bc  b801000000           movl rax,0000000000000001
00007FF5BD647101  15c1  488b1d7debffff       REX.W movq rbx,[rip+0xffffeb7d]
00007FF5BD647108  15c8  e887f1eb7f           call 00007FF63D506294  (CEntry_Return1_ArgvOnStack_NoBuiltinExit)    ;; near builtin entry
00007FF5BD64710D  15cd  cc                   int3l
00007FF5BD64710E  15ce  48898550ffffff       REX.W movq [rbp-0xb0],rax
00007FF5BD647115  15d5  488b8550ffffff       REX.W movq rax,[rbp-0xb0]
00007FF5BD64711C  15dc  bb03680000           movl rbx,0000000000006803
00007FF5BD647121  15e1  ff7590               push [rbp-0x70]
00007FF5BD647124  15e4  ff75a0               push [rbp-0x60]
00007FF5BD647127  15e7  41ffb590010000       push [r13+0x190] (root (undefined_value))
00007FF5BD64712E  15ee  e8a169e27f           call 00007FF63D46DAD4  (Call_ReceiverIsNullOrUndefined_Baseline_Compact)    ;; near builtin entry
00007FF5BD647133  15f3  488b75f8             REX.W movq rsi,[rbp-0x8]
00007FF5BD647137  15f7  e898efef7f           call 00007FF63D5460D4  (ToString)    ;; near builtin entry
00007FF5BD64713C  15fc  48898558ffffff       REX.W movq [rbp-0xa8],rax
00007FF5BD647143  1603  48b82136f06366030000 REX.W movq rax,0000036663F03621    ;; object: 0x036663f03621 <String[1]: #\\>
00007FF5BD64714D  160d  488b9558ffffff       REX.W movq rdx,[rbp-0xa8]
00007FF5BD647154  1614  bb67000000           movl rbx,0000000000000067
00007FF5BD647159  1619  e8b6dae87f           call 00007FF63D4D4C14  (Add_Baseline)    ;; near builtin entry
00007FF5BD64715E  161e  48898558ffffff       REX.W movq [rbp-0xa8],rax
00007FF5BD647165  1625  488b45b8             REX.W movq rax,[rbp-0x48]
00007FF5BD647169  1629  488b75f8             REX.W movq rsi,[rbp-0x8]
00007FF5BD64716D  162d  e862efef7f           call 00007FF63D5460D4  (ToString)    ;; near builtin entry
00007FF5BD647172  1632  488b9558ffffff       REX.W movq rdx,[rbp-0xa8]
00007FF5BD647179  1639  bb67000000           movl rbx,0000000000000067
00007FF5BD64717E  163e  e891dae87f           call 00007FF63D4D4C14  (Add_Baseline)    ;; near builtin entry
00007FF5BD647183  1643  488945b8             REX.W movq [rbp-0x48],rax
00007FF5BD647187  1647  4c8b4580             REX.W movq r8,[rbp-0x80]
00007FF5BD64718B  164b  4c8945b0             REX.W movq [rbp-0x50],r8
00007FF5BD64718F  164f  488b45b0             REX.W movq rax,[rbp-0x50]
00007FF5BD647193  1653  e8bc43f07f           call 00007FF63D54B554  (ToBooleanForBaselineJump)    ;; near builtin entry
00007FF5BD647198  1658  4885d2               REX.W testq rdx,rdx
00007FF5BD64719B  165b  7512                 jnz 00007FF5BD6471AF  <+0x166f>
00007FF5BD64719D  165d  4c8b45f0             REX.W movq r8,[rbp-0x10]
00007FF5BD6471A1  1661  4d8b4027             REX.W movq r8,[r8+0x27]
00007FF5BD6471A5  1665  4183400f0d           addl [r8+0xf],0xd
00007FF5BD6471AA  166a  e95f000000           jmp 00007FF5BD64720E  <+0x16ce>
00007FF5BD6471AF  166f  488b55c0             REX.W movq rdx,[rbp-0x40]
00007FF5BD6471B3  1673  48b99147f06366030000 REX.W movq rcx,0000036663F04791    ;; object: 0x036663f04791 <String[6]: #length>
00007FF5BD6471BD  167d  b81a000000           movl rax,000000000000001A
00007FF5BD6471C2  1682  e8cd01e77f           call 00007FF63D4B7394  (LoadICBaseline)    ;; near builtin entry
00007FF5BD6471C7  1687  48898558ffffff       REX.W movq [rbp-0xa8],rax
00007FF5BD6471CE  168e  33c0                 xorl rax,rax
00007FF5BD6471D0  1690  488b9558ffffff       REX.W movq rdx,[rbp-0xa8]
00007FF5BD6471D7  1697  bb6a000000           movl rbx,000000000000006A
00007FF5BD6471DC  169c  e8338be97f           call 00007FF63D4DFD14  (GreaterThan_Baseline)    ;; near builtin entry
00007FF5BD6471E1  16a1  493b85b0010000       REX.W cmpq rax,[r13+0x1b0] (root (false_value))
00007FF5BD6471E8  16a8  7512                 jnz 00007FF5BD6471FC  <+0x16bc>
00007FF5BD6471EA  16aa  4c8b45f0             REX.W movq r8,[rbp-0x10]
00007FF5BD6471EE  16ae  4d8b4027             REX.W movq r8,[r8+0x27]
00007FF5BD6471F2  16b2  4183400f02           addl [r8+0xf],0x2
00007FF5BD6471F7  16b7  e912000000           jmp 00007FF5BD64720E  <+0x16ce>
00007FF5BD6471FC  16bc  4c8b45f0             REX.W movq r8,[rbp-0x10]
00007FF5BD647200  16c0  4d8b4027             REX.W movq r8,[r8+0x27]
00007FF5BD647204  16c4  4183400f0d           addl [r8+0xf],0xd
00007FF5BD647209  16c9  e991000000           jmp 00007FF5BD64729F  <+0x175f>
00007FF5BD64720E  16ce  488b45a8             REX.W movq rax,[rbp-0x58]
00007FF5BD647212  16d2  bb6b000000           movl rbx,000000000000006B
00007FF5BD647217  16d7  e8f8c0e97f           call 00007FF63D4E3314  (Decrement_Baseline)    ;; near builtin entry
00007FF5BD64721C  16dc  488945a8             REX.W movq [rbp-0x58],rax
00007FF5BD647220  16e0  4c8b45d8             REX.W movq r8,[rbp-0x28]
00007FF5BD647224  16e4  458a4814             movb r9l,[r8+0x14]
00007FF5BD647228  16e8  4180f900             cmpb r9l,0x0
00007FF5BD64722C  16ec  7735                 ja 00007FF5BD647263  <+0x1723>
00007FF5BD64722E  16ee  4c8b45f0             REX.W movq r8,[rbp-0x10]
00007FF5BD647232  16f2  4d8b4027             REX.W movq r8,[r8+0x27]
00007FF5BD647236  16f6  4181400ffdfcffff     addl [r8+0xf],0xfffffcfd
00007FF5BD64723E  16fe  0f8d90e9ffff         jge 00007FF5BD645BD4  <+0x94>
00007FF5BD647244  1704  50                   push rax
00007FF5BD647245  1705  488b75f8             REX.W movq rsi,[rbp-0x8]
00007FF5BD647249  1709  ff75f0               push [rbp-0x10]
00007FF5BD64724C  170c  b801000000           movl rax,0000000000000001
00007FF5BD647251  1711  488b1d07f3ffff       REX.W movq rbx,[rip+0xfffff307]
00007FF5BD647258  1718  e837f0eb7f           call 00007FF63D506294  (CEntry_Return1_ArgvOnStack_NoBuiltinExit)    ;; near builtin entry
00007FF5BD64725D  171d  58                   pop rax
00007FF5BD64725E  171e  e971e9ffff           jmp 00007FF5BD645BD4  <+0x94>
00007FF5BD647263  1723  498b8097030000       REX.W movq rax,[r8+0x397]
00007FF5BD64726A  172a  83f803               cmpl rax,0x3
00007FF5BD64726D  172d  0f8415000000         jz 00007FF5BD647288  <+0x1748>
00007FF5BD647273  1733  4883e0fd             REX.W andq rax,0xfd
00007FF5BD647277  1737  f6403501             testb [rax+0x35],0x1
00007FF5BD64727B  173b  7417                 jz 00007FF5BD647294  <+0x1754>
00007FF5BD64727D  173d  49c7809703000003000000 REX.W movq [r8+0x397],0x3
00007FF5BD647288  1748  33c0                 xorl rax,rax
00007FF5BD64728A  174a  4983e107             REX.W andq r9,0x7
00007FF5BD64728E  174e  4180f900             cmpb r9l,0x0
00007FF5BD647292  1752  769a                 jna 00007FF5BD64722E  <+0x16ee>
00007FF5BD647294  1754  488b75f8             REX.W movq rsi,[rbp-0x8]
00007FF5BD647298  1758  e8f712e37f           call 00007FF63D478594  (BaselineOnStackReplacement)    ;; near builtin entry
00007FF5BD64729D  175d  eb8f                 jmp 00007FF5BD64722E  <+0x16ee>
00007FF5BD64729F  175f  4c8b45f8             REX.W movq r8,[rbp-0x8]
00007FF5BD6472A3  1763  498b80cf000000       REX.W movq rax,[r8+0xcf]
00007FF5BD6472AA  176a  48898558ffffff       REX.W movq [rbp-0xa8],rax
00007FF5BD6472B1  1771  488b45b0             REX.W movq rax,[rbp-0x50]
00007FF5BD6472B5  1775  e89a42f07f           call 00007FF63D54B554  (ToBooleanForBaselineJump)    ;; near builtin entry
00007FF5BD6472BA  177a  4885d2               REX.W testq rdx,rdx
00007FF5BD6472BD  177d  7409                 jz 00007FF5BD6472C8  <+0x1788>
00007FF5BD6472BF  177f  498b85b0010000       REX.W movq rax,[r13+0x1b0] (root (false_value))
00007FF5BD6472C6  1786  eb07                 jmp 00007FF5BD6472CF  <+0x178f>
00007FF5BD6472C8  1788  498b85a8010000       REX.W movq rax,[r13+0x1a8] (root (true_value))
00007FF5BD6472CF  178f  48898548ffffff       REX.W movq [rbp-0xb8],rax
00007FF5BD6472D6  1796  48b82136f06366030000 REX.W movq rax,0000036663F03621    ;; object: 0x036663f03621 <String[1]: #\\>
00007FF5BD6472E0  17a0  48898540ffffff       REX.W movq [rbp-0xc0],rax
00007FF5BD6472E7  17a7  4c8b45f8             REX.W movq r8,[rbp-0x8]
00007FF5BD6472EB  17ab  498b80b7000000       REX.W movq rax,[r8+0xb7]
00007FF5BD6472F2  17b2  48898538ffffff       REX.W movq [rbp-0xc8],rax
00007FF5BD6472F9  17b9  4c8b45b8             REX.W movq r8,[rbp-0x48]
00007FF5BD6472FD  17bd  4c898550ffffff       REX.W movq [rbp-0xb0],r8
00007FF5BD647304  17c4  488b8558ffffff       REX.W movq rax,[rbp-0xa8]
00007FF5BD64730B  17cb  bb056d0000           movl rbx,0000000000006D05
00007FF5BD647310  17d0  ffb538ffffff         push [rbp-0xc8]
00007FF5BD647316  17d6  ffb540ffffff         push [rbp-0xc0]
00007FF5BD64731C  17dc  ffb548ffffff         push [rbp-0xb8]
00007FF5BD647322  17e2  ffb550ffffff         push [rbp-0xb0]
00007FF5BD647328  17e8  41ffb590010000       push [r13+0x190] (root (undefined_value))
00007FF5BD64732F  17ef  e8a067e27f           call 00007FF63D46DAD4  (Call_ReceiverIsNullOrUndefined_Baseline_Compact)    ;; near builtin entry
00007FF5BD647334  17f4  488945b8             REX.W movq [rbp-0x48],rax
00007FF5BD647338  17f8  488b45b0             REX.W movq rax,[rbp-0x50]
00007FF5BD64733C  17fc  e81342f07f           call 00007FF63D54B554  (ToBooleanForBaselineJump)    ;; near builtin entry
00007FF5BD647341  1801  4885d2               REX.W testq rdx,rdx
00007FF5BD647344  1804  7512                 jnz 00007FF5BD647358  <+0x1818>
00007FF5BD647346  1806  4c8b45f0             REX.W movq r8,[rbp-0x10]
00007FF5BD64734A  180a  4d8b4027             REX.W movq r8,[r8+0x27]
00007FF5BD64734E  180e  4183400f12           addl [r8+0xf],0x12
00007FF5BD647353  1813  e966000000           jmp 00007FF5BD6473BE  <+0x187e>
00007FF5BD647358  1818  488b45c0             REX.W movq rax,[rbp-0x40]
00007FF5BD64735C  181c  488b75f8             REX.W movq rsi,[rbp-0x8]
00007FF5BD647360  1820  e86fedef7f           call 00007FF63D5460D4  (ToString)    ;; near builtin entry
00007FF5BD647365  1825  48898558ffffff       REX.W movq [rbp-0xa8],rax
00007FF5BD64736C  182c  48b82136f06366030000 REX.W movq rax,0000036663F03621    ;; object: 0x036663f03621 <String[1]: #\\>
00007FF5BD647376  1836  488b9558ffffff       REX.W movq rdx,[rbp-0xa8]
00007FF5BD64737D  183d  bb6f000000           movl rbx,000000000000006F
00007FF5BD647382  1842  e88dd8e87f           call 00007FF63D4D4C14  (Add_Baseline)    ;; near builtin entry
00007FF5BD647387  1847  48898558ffffff       REX.W movq [rbp-0xa8],rax
00007FF5BD64738E  184e  488b45b8             REX.W movq rax,[rbp-0x48]
00007FF5BD647392  1852  488b75f8             REX.W movq rsi,[rbp-0x8]
00007FF5BD647396  1856  e839edef7f           call 00007FF63D5460D4  (ToString)    ;; near builtin entry
00007FF5BD64739B  185b  488b9558ffffff       REX.W movq rdx,[rbp-0xa8]
00007FF5BD6473A2  1862  bb6f000000           movl rbx,000000000000006F
00007FF5BD6473A7  1867  e868d8e87f           call 00007FF63D4D4C14  (Add_Baseline)    ;; near builtin entry
00007FF5BD6473AC  186c  4c8b45f0             REX.W movq r8,[rbp-0x10]
00007FF5BD6473B0  1870  4d8b4027             REX.W movq r8,[r8+0x27]
00007FF5BD6473B4  1874  4183400f0e           addl [r8+0xf],0xe
00007FF5BD6473B9  1879  e958000000           jmp 00007FF5BD647416  <+0x18d6>
00007FF5BD6473BE  187e  488b45c0             REX.W movq rax,[rbp-0x40]
00007FF5BD6473C2  1882  488b75f8             REX.W movq rsi,[rbp-0x8]
00007FF5BD6473C6  1886  e809edef7f           call 00007FF63D5460D4  (ToString)    ;; near builtin entry
00007FF5BD6473CB  188b  48898558ffffff       REX.W movq [rbp-0xa8],rax
00007FF5BD6473D2  1892  488b45b8             REX.W movq rax,[rbp-0x48]
00007FF5BD6473D6  1896  488b75f8             REX.W movq rsi,[rbp-0x8]
00007FF5BD6473DA  189a  e8f5ecef7f           call 00007FF63D5460D4  (ToString)    ;; near builtin entry
00007FF5BD6473DF  189f  488b9558ffffff       REX.W movq rdx,[rbp-0xa8]
00007FF5BD6473E6  18a6  bb70000000           movl rbx,0000000000000070
00007FF5BD6473EB  18ab  e824d8e87f           call 00007FF63D4D4C14  (Add_Baseline)    ;; near builtin entry
00007FF5BD6473F0  18b0  e85f41f07f           call 00007FF63D54B554  (ToBooleanForBaselineJump)    ;; near builtin entry
00007FF5BD6473F5  18b5  4885d2               REX.W testq rdx,rdx
00007FF5BD6473F8  18b8  7412                 jz 00007FF5BD64740C  <+0x18cc>
00007FF5BD6473FA  18ba  4c8b45f0             REX.W movq r8,[rbp-0x10]
00007FF5BD6473FE  18be  4d8b4027             REX.W movq r8,[r8+0x27]
00007FF5BD647402  18c2  4183400f02           addl [r8+0xf],0x2
00007FF5BD647407  18c7  e90a000000           jmp 00007FF5BD647416  <+0x18d6>
00007FF5BD64740C  18cc  48b8d131f06366030000 REX.W movq rax,0000036663F031D1    ;; object: 0x036663f031d1 <String[1]: #.>
00007FF5BD647416  18d6  bb01000000           movl rbx,0000000000000001
00007FF5BD64741B  18db  48c7c1acfcffff       REX.W movq rcx,0xfffffcac
00007FF5BD647422  18e2  e9ed11e37f           jmp 00007FF63D478614  (BaselineLeaveFrame)    ;; near builtin entry
00007FF5BD647427  18e7  cc                   int3l


RelocInfo (size = 373)
00007FF5BD645B47  full embedded object  (0x03f7ca6c19c9 <BytecodeArray[852]>)
00007FF5BD645B50  near builtin entry
00007FF5BD645B74  near builtin entry
00007FF5BD645B82  full embedded object  (0x036663f00701 <String[0]: #>)
00007FF5BD645B90  full embedded object  (0x036663f00701 <String[0]: #>)
00007FF5BD645BAD  full embedded object  (0x036663f04791 <String[6]: #length>)
00007FF5BD645BBB  near builtin entry
00007FF5BD645BCC  near builtin entry
00007FF5BD645BE8  near builtin entry
00007FF5BD645C21  near builtin entry
00007FF5BD645C4E  near builtin entry
00007FF5BD645C74  full embedded object  (0x0123bee44b71 <String[14]: #validateString>)
00007FF5BD645C8E  near builtin entry
00007FF5BD645C9C  full embedded object  (0x03f7ca6c1819 <String[6]: #paths[>)
00007FF5BD645CB4  near builtin entry
00007FF5BD645CC5  near builtin entry
00007FF5BD645CD2  full embedded object  (0x036663f03639 <String[1]: #]>)
00007FF5BD645CE7  near builtin entry
00007FF5BD645D0F  near builtin entry
00007FF5BD645D19  full embedded object  (0x036663f04791 <String[6]: #length>)
00007FF5BD645D27  near builtin entry
00007FF5BD645D41  near builtin entry
00007FF5BD645D90  full embedded object  (0x036663f04791 <String[6]: #length>)
00007FF5BD645D9E  near builtin entry
00007FF5BD645DB8  near builtin entry
00007FF5BD645DEF  full embedded object  (0x0123bee539e9 <String[3]: #cwd>)
00007FF5BD645DFD  near builtin entry
00007FF5BD645E1B  near builtin entry
00007FF5BD645E4D  full embedded object  (0x0123bee5f689 <String[3]: #env>)
00007FF5BD645E5B  near builtin entry
00007FF5BD645E68  full embedded object  (0x036663f03339 <String[1]: #=>)
00007FF5BD645E80  near builtin entry
00007FF5BD645E91  near builtin entry
00007FF5BD645EA2  near builtin entry
00007FF5BD645EA7  near builtin entry
00007FF5BD645EDA  full embedded object  (0x0123bee539e9 <String[3]: #cwd>)
00007FF5BD645EE8  near builtin entry
00007FF5BD645F06  near builtin entry
00007FF5BD645F44  full embedded object  (0x0123bee42c51 <String[26]: #StringPrototypeToLowerCase>)
00007FF5BD645F5B  near builtin entry
00007FF5BD645F82  full embedded object  (0x0123bee42349 <String[20]: #StringPrototypeSlice>)
00007FF5BD645F99  near builtin entry
00007FF5BD645FF0  near builtin entry
00007FF5BD646015  near builtin entry
00007FF5BD64603B  full embedded object  (0x0123bee42c51 <String[26]: #StringPrototypeToLowerCase>)
00007FF5BD646052  near builtin entry
00007FF5BD646075  near builtin entry
00007FF5BD646086  near builtin entry
00007FF5BD6460C0  full embedded object  (0x0123bee467f9 <String[25]: #StringPrototypeCharCodeAt>)
00007FF5BD6460D7  near builtin entry
00007FF5BD64610E  near builtin entry
00007FF5BD646137  full embedded object  (0x0123bee4ae91 <String[19]: #CHAR_BACKWARD_SLASH>)
00007FF5BD64614E  near builtin entry
00007FF5BD646160  near builtin entry
00007FF5BD646188  near builtin entry
00007FF5BD646195  full embedded object  (0x036663f03621 <String[1]: #\\>)
00007FF5BD6461AA  near builtin entry
00007FF5BD6461B8  full embedded object  (0x036663f04791 <String[6]: #length>)
00007FF5BD6461C6  near builtin entry
00007FF5BD6461D6  full embedded object  (0x036663f00701 <String[0]: #>)
00007FF5BD646208  full embedded object  (0x0123bee467f9 <String[25]: #StringPrototypeCharCodeAt>)
00007FF5BD64621F  near builtin entry
00007FF5BD646251  near builtin entry
00007FF5BD64626D  near builtin entry
00007FF5BD6462B8  near builtin entry
00007FF5BD6462BD  near builtin entry
00007FF5BD64632F  near builtin entry
00007FF5BD646334  near builtin entry
00007FF5BD64638A  full embedded object  (0x0123bee467f9 <String[25]: #StringPrototypeCharCodeAt>)
00007FF5BD6463A1  near builtin entry
00007FF5BD6463D8  near builtin entry
00007FF5BD6463FD  near builtin entry
00007FF5BD646402  near builtin entry
00007FF5BD646446  near builtin entry
00007FF5BD646492  full embedded object  (0x0123bee467f9 <String[25]: #StringPrototypeCharCodeAt>)
00007FF5BD6464A9  near builtin entry
00007FF5BD6464D2  near builtin entry
00007FF5BD6464F7  near builtin entry
00007FF5BD6464FC  near builtin entry
00007FF5BD646524  near builtin entry
00007FF5BD646568  near builtin entry
00007FF5BD6465A8  near builtin entry
00007FF5BD6465BF  near builtin entry
00007FF5BD6465F5  near builtin entry
00007FF5BD646632  full embedded object  (0x0123bee42349 <String[20]: #StringPrototypeSlice>)
00007FF5BD646649  near builtin entry
00007FF5BD6466A2  near builtin entry
00007FF5BD6466D3  near builtin entry
00007FF5BD64671F  full embedded object  (0x0123bee467f9 <String[25]: #StringPrototypeCharCodeAt>)
00007FF5BD646736  near builtin entry
00007FF5BD64675F  near builtin entry
00007FF5BD646784  near builtin entry
00007FF5BD646789  near builtin entry
00007FF5BD6467B1  near builtin entry
00007FF5BD6467F2  near builtin entry
00007FF5BD646832  near builtin entry
00007FF5BD646849  near builtin entry
00007FF5BD64687C  near builtin entry
00007FF5BD6468C1  near builtin entry
00007FF5BD64690D  full embedded object  (0x0123bee467f9 <String[25]: #StringPrototypeCharCodeAt>)
00007FF5BD646924  near builtin entry
00007FF5BD64694D  near builtin entry
00007FF5BD646972  near builtin entry
00007FF5BD646977  near builtin entry
00007FF5BD64699F  near builtin entry
00007FF5BD6469E0  near builtin entry
00007FF5BD646A20  near builtin entry
00007FF5BD646A37  near builtin entry
00007FF5BD646A6A  near builtin entry
00007FF5BD646A8B  full embedded object  (0x0123bee60401 <String[2]: #\\\\>)
00007FF5BD646AA6  near builtin entry
00007FF5BD646AB7  near builtin entry
00007FF5BD646AC4  full embedded object  (0x036663f03621 <String[1]: #\\>)
00007FF5BD646AD9  near builtin entry
00007FF5BD646AFF  full embedded object  (0x0123bee42349 <String[20]: #StringPrototypeSlice>)
00007FF5BD646B16  near builtin entry
00007FF5BD646B6F  near builtin entry
00007FF5BD646B78  near builtin entry
00007FF5BD646B89  near builtin entry
00007FF5BD646BFB  near builtin entry
00007FF5BD646C00  near builtin entry
00007FF5BD646C36  full embedded object  (0x0123bee467f9 <String[25]: #StringPrototypeCharCodeAt>)
00007FF5BD646C4D  near builtin entry
00007FF5BD646C84  near builtin entry
00007FF5BD646CAD  full embedded object  (0x0123bee4aeb9 <String[10]: #CHAR_COLON>)
00007FF5BD646CC4  near builtin entry
00007FF5BD646CD6  near builtin entry
00007FF5BD646D10  full embedded object  (0x0123bee42349 <String[20]: #StringPrototypeSlice>)
00007FF5BD646D27  near builtin entry
00007FF5BD646D7B  near builtin entry
00007FF5BD646D9F  near builtin entry
00007FF5BD646DEB  full embedded object  (0x0123bee467f9 <String[25]: #StringPrototypeCharCodeAt>)
00007FF5BD646E02  near builtin entry
00007FF5BD646E39  near builtin entry
00007FF5BD646E5E  near builtin entry
00007FF5BD646E63  near builtin entry
00007FF5BD646E9D  full embedded object  (0x036663f04791 <String[6]: #length>)
00007FF5BD646EAB  near builtin entry
00007FF5BD646EC5  near builtin entry
00007FF5BD646EEA  full embedded object  (0x036663f04791 <String[6]: #length>)
00007FF5BD646EF8  near builtin entry
00007FF5BD646F12  near builtin entry
00007FF5BD646F4C  full embedded object  (0x0123bee42c51 <String[26]: #StringPrototypeToLowerCase>)
00007FF5BD646F63  near builtin entry
00007FF5BD646F86  near builtin entry
00007FF5BD646FAC  full embedded object  (0x0123bee42c51 <String[26]: #StringPrototypeToLowerCase>)
00007FF5BD646FC3  near builtin entry
00007FF5BD646FE6  near builtin entry
00007FF5BD646FF7  near builtin entry
00007FF5BD64704B  near builtin entry
00007FF5BD64706C  full embedded object  (0x036663f04791 <String[6]: #length>)
00007FF5BD64707A  near builtin entry
00007FF5BD647094  near builtin entry
00007FF5BD6470F2  full embedded object  (0x0123bee42349 <String[20]: #StringPrototypeSlice>)
00007FF5BD647109  near builtin entry
00007FF5BD64712F  near builtin entry
00007FF5BD647138  near builtin entry
00007FF5BD647145  full embedded object  (0x036663f03621 <String[1]: #\\>)
00007FF5BD64715A  near builtin entry
00007FF5BD64716E  near builtin entry
00007FF5BD64717F  near builtin entry
00007FF5BD647194  near builtin entry
00007FF5BD6471B5  full embedded object  (0x036663f04791 <String[6]: #length>)
00007FF5BD6471C3  near builtin entry
00007FF5BD6471DD  near builtin entry
00007FF5BD647218  near builtin entry
00007FF5BD647259  near builtin entry
00007FF5BD647299  near builtin entry
00007FF5BD6472B6  near builtin entry
00007FF5BD6472D8  full embedded object  (0x036663f03621 <String[1]: #\\>)
00007FF5BD647330  near builtin entry
00007FF5BD64733D  near builtin entry
00007FF5BD647361  near builtin entry
00007FF5BD64736E  full embedded object  (0x036663f03621 <String[1]: #\\>)
00007FF5BD647383  near builtin entry
00007FF5BD647397  near builtin entry
00007FF5BD6473A8  near builtin entry
00007FF5BD6473C7  near builtin entry
00007FF5BD6473DB  near builtin entry
00007FF5BD6473EC  near builtin entry
00007FF5BD6473F1  near builtin entry
00007FF5BD64740E  full embedded object  (0x036663f031d1 <String[1]: #.>)
00007FF5BD647423  near builtin entry

000003F7CA6FD841: [Code] in OldSpace
 - map: 0x036663f01019 <Map[88](CODE_TYPE)>
 - kind: BASELINE
 - instruction_stream: 0x7ff5bd647431 <InstructionStream BASELINE>
 - code_entry_point: 00007FF5BD647440
 - kind_specific_flags: 0
00007FF5BD647431: [InstructionStream]
 - map: 0x036663f00951 <Map(INSTRUCTION_STREAM_TYPE)>
 - code: 0x03f7ca6fd841 <Code BASELINE>kind = BASELINE
compiler = baseline
address = 000003F7CA6FD841

Instructions (size = 568)
00007FF5BD647440     0  bb58000000           movl rbx,0000000000000058
00007FF5BD647445     5  49bc11e9e7be23010000 REX.W movq r12,00000123BEE7E911    ;; object: 0x0123bee7e911 <BytecodeArray[75]>
00007FF5BD64744F     f  e8400fe37f           call 00007FF63D478394  (BaselineOutOfLinePrologue)    ;; near builtin entry
00007FF5BD647454    14  50                   push rax
00007FF5BD647455    15  50                   push rax
00007FF5BD647456    16  50                   push rax
00007FF5BD647457    17  50                   push rax
00007FF5BD647458    18  50                   push rax
00007FF5BD647459    19  50                   push rax
00007FF5BD64745A    1a  50                   push rax
00007FF5BD64745B    1b  488b45f0             REX.W movq rax,[rbp-0x10]
00007FF5BD64745F    1f  488b75f8             REX.W movq rsi,[rbp-0x8]
00007FF5BD647463    23  e82c4ff57f           call 00007FF63D59C394  (FastNewRestArguments)    ;; near builtin entry
00007FF5BD647468    28  488945c8             REX.W movq [rbp-0x38],rax
00007FF5BD64746C    2c  488945d0             REX.W movq [rbp-0x30],rax
00007FF5BD647470    30  4c8b45f8             REX.W movq r8,[rbp-0x8]
00007FF5BD647474    34  4c8945c0             REX.W movq [rbp-0x40],r8
00007FF5BD647478    38  4c8b45f8             REX.W movq r8,[rbp-0x8]
00007FF5BD64747C    3c  4d8b4017             REX.W movq r8,[r8+0x17]
00007FF5BD647480    40  498b8017010000       REX.W movq rax,[r8+0x117]
00007FF5BD647487    47  493b8598010000       REX.W cmpq rax,[r13+0x198] (root (the_hole_value))
00007FF5BD64748E    4e  0f8525000000         jnz 00007FF5BD6474B9  <+0x79>
00007FF5BD647494    54  488b75f8             REX.W movq rsi,[rbp-0x8]
00007FF5BD647498    58  49ba4916e4be23010000 REX.W movq r10,00000123BEE41649    ;; object: 0x0123bee41649 <String[12]: #ReflectApply>
00007FF5BD6474A2    62  4152                 push r10
00007FF5BD6474A4    64  b801000000           movl rax,0000000000000001
00007FF5BD6474A9    69  48bb5038f83cf67f0000 REX.W movq rbx,00007FF63CF83850
00007FF5BD6474B3    73  e8dcedeb7f           call 00007FF63D506294  (CEntry_Return1_ArgvOnStack_NoBuiltinExit)    ;; near builtin entry
00007FF5BD6474B8    78  cc                   int3l
00007FF5BD6474B9    79  488945b8             REX.W movq [rbp-0x48],rax
00007FF5BD6474BD    7d  4c8b45f8             REX.W movq r8,[rbp-0x8]
00007FF5BD6474C1    81  498b401f             REX.W movq rax,[r8+0x1f]
00007FF5BD6474C5    85  488945b0             REX.W movq [rbp-0x50],rax
00007FF5BD6474C9    89  4c8b4510             REX.W movq r8,[rbp+0x10]
00007FF5BD6474CD    8d  4c8945a8             REX.W movq [rbp-0x58],r8
00007FF5BD6474D1    91  4c8b45d0             REX.W movq r8,[rbp-0x30]
00007FF5BD6474D5    95  4c8945a0             REX.W movq [rbp-0x60],r8
00007FF5BD6474D9    99  488b45b8             REX.W movq rax,[rbp-0x48]
00007FF5BD6474DD    9d  bb04000000           movl rbx,0000000000000004
00007FF5BD6474E2    a2  ff75a0               push [rbp-0x60]
00007FF5BD6474E5    a5  ff75a8               push [rbp-0x58]
00007FF5BD6474E8    a8  ff75b0               push [rbp-0x50]
00007FF5BD6474EB    ab  41ffb590010000       push [r13+0x190] (root (undefined_value))
00007FF5BD6474F2    b2  e8dd65e27f           call 00007FF63D46DAD4  (Call_ReceiverIsNullOrUndefined_Baseline_Compact)    ;; near builtin entry
00007FF5BD6474F7    b7  bb01000000           movl rbx,0000000000000001
00007FF5BD6474FC    bc  48c7c1e4ffffff       REX.W movq rcx,0xffffffe4
00007FF5BD647503    c3  e90c11e37f           jmp 00007FF63D478614  (BaselineLeaveFrame)    ;; near builtin entry
00007FF5BD647508    c8  488945b8             REX.W movq [rbp-0x48],rax
00007FF5BD64750C    cc  488b75f8             REX.W movq rsi,[rbp-0x8]
00007FF5BD647510    d0  ff75b8               push [rbp-0x48]
00007FF5BD647513    d3  49bad1e9e7be23010000 REX.W movq r10,00000123BEE7E9D1    ;; object: 0x0123bee7e9d1 <ScopeInfo CATCH_SCOPE>
00007FF5BD64751D    dd  4152                 push r10
00007FF5BD64751F    df  b802000000           movl rax,0000000000000002
00007FF5BD647524    e4  48bbe0aaf63cf67f0000 REX.W movq rbx,00007FF63CF6AAE0
00007FF5BD64752E    ee  e861edeb7f           call 00007FF63D506294  (CEntry_Return1_ArgvOnStack_NoBuiltinExit)    ;; near builtin entry
00007FF5BD647533    f3  488945c0             REX.W movq [rbp-0x40],rax
00007FF5BD647537    f7  498b8598010000       REX.W movq rax,[r13+0x198] (root (the_hole_value))
00007FF5BD64753E    fe  49b8e801154995020000 REX.W movq r8,00000295491501E8
00007FF5BD647548   108  4c8bc8               REX.W movq r9,rax
00007FF5BD64754B   10b  498b00               REX.W movq rax,[r8]
00007FF5BD64754E   10e  4d8908               REX.W movq [r8],r9
00007FF5BD647551   111  488b45c0             REX.W movq rax,[rbp-0x40]
00007FF5BD647555   115  4c8b45f8             REX.W movq r8,[rbp-0x8]
00007FF5BD647559   119  488945f8             REX.W movq [rbp-0x8],rax
00007FF5BD64755D   11d  4c8945b8             REX.W movq [rbp-0x48],r8
00007FF5BD647561   121  4c8b45f8             REX.W movq r8,[rbp-0x8]
00007FF5BD647565   125  4d8b4017             REX.W movq r8,[r8+0x17]
00007FF5BD647569   129  4d8b4017             REX.W movq r8,[r8+0x17]
00007FF5BD64756D   12d  498b8097000000       REX.W movq rax,[r8+0x97]
00007FF5BD647574   134  493b8598010000       REX.W cmpq rax,[r13+0x198] (root (the_hole_value))
00007FF5BD64757B   13b  0f8522000000         jnz 00007FF5BD6475A3  <+0x163>
00007FF5BD647581   141  488b75f8             REX.W movq rsi,[rbp-0x8]
00007FF5BD647585   145  49bac160f06366030000 REX.W movq r10,0000036663F060C1    ;; object: 0x036663f060c1 <String[5]: #Error>
00007FF5BD64758F   14f  4152                 push r10
00007FF5BD647591   151  b801000000           movl rax,0000000000000001
00007FF5BD647596   156  488b1d0effffff       REX.W movq rbx,[rip+0xffffff0e]
00007FF5BD64759D   15d  e8f2eceb7f           call 00007FF63D506294  (CEntry_Return1_ArgvOnStack_NoBuiltinExit)    ;; near builtin entry
00007FF5BD6475A2   162  cc                   int3l
00007FF5BD6475A3   163  488945b0             REX.W movq [rbp-0x50],rax
00007FF5BD6475A7   167  488b55b0             REX.W movq rdx,[rbp-0x50]
00007FF5BD6475AB   16b  48b98173f06366030000 REX.W movq rcx,0000036663F07381    ;; object: 0x036663f07381 <String[15]: #stackTraceLimit>
00007FF5BD6475B5   175  b804000000           movl rax,0000000000000004
00007FF5BD6475BA   17a  e8d5fde67f           call 00007FF63D4B7394  (LoadICBaseline)    ;; near builtin entry
00007FF5BD6475BF   17f  e8903ff07f           call 00007FF63D54B554  (ToBooleanForBaselineJump)    ;; near builtin entry
00007FF5BD6475C4   184  4885d2               REX.W testq rdx,rdx
00007FF5BD6475C7   187  7512                 jnz 00007FF5BD6475DB  <+0x19b>
00007FF5BD6475C9   189  4c8b45f0             REX.W movq r8,[rbp-0x10]
00007FF5BD6475CD   18d  4d8b4027             REX.W movq r8,[r8+0x27]
00007FF5BD6475D1   191  4183400f14           addl [r8+0xf],0x14
00007FF5BD6475D6   196  e979000000           jmp 00007FF5BD647654  <+0x214>
00007FF5BD6475DB   19b  4c8b45f8             REX.W movq r8,[rbp-0x8]
00007FF5BD6475DF   19f  4d8b4017             REX.W movq r8,[r8+0x17]
00007FF5BD6475E3   1a3  4d8b4017             REX.W movq r8,[r8+0x17]
00007FF5BD6475E7   1a7  498b809f000000       REX.W movq rax,[r8+0x9f]
00007FF5BD6475EE   1ae  493b8598010000       REX.W cmpq rax,[r13+0x198] (root (the_hole_value))
00007FF5BD6475F5   1b5  0f8522000000         jnz 00007FF5BD64761D  <+0x1dd>
00007FF5BD6475FB   1bb  488b75f8             REX.W movq rsi,[rbp-0x8]
00007FF5BD6475FF   1bf  49ba711fe4be23010000 REX.W movq r10,00000123BEE41F71    ;; object: 0x0123bee41f71 <String[22]: #ErrorCaptureStackTrace>
00007FF5BD647609   1c9  4152                 push r10
00007FF5BD64760B   1cb  b801000000           movl rax,0000000000000001
00007FF5BD647610   1d0  488b1d94feffff       REX.W movq rbx,[rip+0xfffffe94]
00007FF5BD647617   1d7  e878eceb7f           call 00007FF63D506294  (CEntry_Return1_ArgvOnStack_NoBuiltinExit)    ;; near builtin entry
00007FF5BD64761C   1dc  cc                   int3l
00007FF5BD64761D   1dd  488945b0             REX.W movq [rbp-0x50],rax
00007FF5BD647621   1e1  4c8b45f8             REX.W movq r8,[rbp-0x8]
00007FF5BD647625   1e5  498b401f             REX.W movq rax,[r8+0x1f]
00007FF5BD647629   1e9  488945a8             REX.W movq [rbp-0x58],rax
00007FF5BD64762D   1ed  4c8b45b8             REX.W movq r8,[rbp-0x48]
00007FF5BD647631   1f1  498b4027             REX.W movq rax,[r8+0x27]
00007FF5BD647635   1f5  488945a0             REX.W movq [rbp-0x60],rax
00007FF5BD647639   1f9  488b45b0             REX.W movq rax,[rbp-0x50]
00007FF5BD64763D   1fd  bb03040000           movl rbx,0000000000000403
00007FF5BD647642   202  ff75a0               push [rbp-0x60]
00007FF5BD647645   205  ff75a8               push [rbp-0x58]
00007FF5BD647648   208  41ffb590010000       push [r13+0x190] (root (undefined_value))
00007FF5BD64764F   20f  e88064e27f           call 00007FF63D46DAD4  (Call_ReceiverIsNullOrUndefined_Baseline_Compact)    ;; near builtin entry
00007FF5BD647654   214  4c8b45f8             REX.W movq r8,[rbp-0x8]
00007FF5BD647658   218  498b401f             REX.W movq rax,[r8+0x1f]
00007FF5BD64765C   21c  488b75f8             REX.W movq rsi,[rbp-0x8]
00007FF5BD647660   220  50                   push rax
00007FF5BD647661   221  b801000000           movl rax,0000000000000001
00007FF5BD647666   226  48bbd037f83cf67f0000 REX.W movq rbx,00007FF63CF837D0
00007FF5BD647670   230  e81feceb7f           call 00007FF63D506294  (CEntry_Return1_ArgvOnStack_NoBuiltinExit)    ;; near builtin entry
00007FF5BD647675   235  cc                   int3l
00007FF5BD647676   236  cc                   int3l
00007FF5BD647677   237  cc                   int3l


RelocInfo (size = 34)
00007FF5BD647447  full embedded object  (0x0123bee7e911 <BytecodeArray[75]>)
00007FF5BD647450  near builtin entry
00007FF5BD647464  near builtin entry
00007FF5BD64749A  full embedded object  (0x0123bee41649 <String[12]: #ReflectApply>)
00007FF5BD6474B4  near builtin entry
00007FF5BD6474F3  near builtin entry
00007FF5BD647504  near builtin entry
00007FF5BD647515  full embedded object  (0x0123bee7e9d1 <ScopeInfo CATCH_SCOPE>)
00007FF5BD64752F  near builtin entry
00007FF5BD647587  full embedded object  (0x036663f060c1 <String[5]: #Error>)
00007FF5BD64759E  near builtin entry
00007FF5BD6475AD  full embedded object  (0x036663f07381 <String[15]: #stackTraceLimit>)
00007FF5BD6475BB  near builtin entry
00007FF5BD6475C0  near builtin entry
00007FF5BD647601  full embedded object  (0x0123bee41f71 <String[22]: #ErrorCaptureStackTrace>)
00007FF5BD647618  near builtin entry
00007FF5BD647650  near builtin entry
00007FF5BD647671  near builtin entry

000003F7CA6FD8D1: [Code] in OldSpace
 - map: 0x036663f01019 <Map[88](CODE_TYPE)>
 - kind: BASELINE
 - instruction_stream: 0x7ff5bd6476b1 <InstructionStream BASELINE>
 - code_entry_point: 00007FF5BD6476C0
 - kind_specific_flags: 0
00007FF5BD6476B1: [InstructionStream]
 - map: 0x036663f00951 <Map(INSTRUCTION_STREAM_TYPE)>
 - code: 0x03f7ca6fd8d1 <Code BASELINE>kind = BASELINE
compiler = baseline
address = 000003F7CA6FD8D1

Instructions (size = 564)
00007FF5BD6476C0     0  bb28000000           movl rbx,0000000000000028
00007FF5BD6476C5     5  49bcd1766fcaf7030000 REX.W movq r12,000003F7CA6F76D1    ;; object: 0x03f7ca6f76d1 <BytecodeArray[54]>
00007FF5BD6476CF     f  e8c00ce37f           call 00007FF63D478394  (BaselineOutOfLinePrologue)    ;; near builtin entry
00007FF5BD6476D4    14  50                   push rax
00007FF5BD6476D5    15  50                   push rax
00007FF5BD6476D6    16  488b5518             REX.W movq rdx,[rbp+0x18]
00007FF5BD6476DA    1a  48b99147f06366030000 REX.W movq rcx,0000036663F04791    ;; object: 0x036663f04791 <String[6]: #length>
00007FF5BD6476E4    24  33c0                 xorl rax,rax
00007FF5BD6476E6    26  e8a9fce67f           call 00007FF63D4B7394  (LoadICBaseline)    ;; near builtin entry
00007FF5BD6476EB    2b  488b5520             REX.W movq rdx,[rbp+0x20]
00007FF5BD6476EF    2f  bb02000000           movl rbx,0000000000000002
00007FF5BD6476F4    34  e85b80e97f           call 00007FF63D4DF754  (LessThan_Baseline)    ;; near builtin entry
00007FF5BD6476F9    39  493b85b0010000       REX.W cmpq rax,[r13+0x1b0] (root (false_value))
00007FF5BD647700    40  7512                 jnz 00007FF5BD647714  <+0x54>
00007FF5BD647702    42  4c8b45f0             REX.W movq r8,[rbp-0x10]
00007FF5BD647706    46  4d8b4027             REX.W movq r8,[r8+0x27]
00007FF5BD64770A    4a  4183400f2a           addl [r8+0xf],0x2a
00007FF5BD64770F    4f  e9c3010000           jmp 00007FF5BD6478D7  <+0x217>
00007FF5BD647714    54  4c8b45f8             REX.W movq r8,[rbp-0x8]
00007FF5BD647718    58  498b407f             REX.W movq rax,[r8+0x7f]
00007FF5BD64771C    5c  493b8598010000       REX.W cmpq rax,[r13+0x198] (root (the_hole_value))
00007FF5BD647723    63  0f8525000000         jnz 00007FF5BD64774E  <+0x8e>
00007FF5BD647729    69  488b75f8             REX.W movq rsi,[rbp-0x8]
00007FF5BD64772D    6d  49baf967e4be23010000 REX.W movq r10,00000123BEE467F9    ;; object: 0x0123bee467f9 <String[25]: #StringPrototypeCharCodeAt>
00007FF5BD647737    77  4152                 push r10
00007FF5BD647739    79  b801000000           movl rax,0000000000000001
00007FF5BD64773E    7e  48bb5038f83cf67f0000 REX.W movq rbx,00007FF63CF83850
00007FF5BD647748    88  e847ebeb7f           call 00007FF63D506294  (CEntry_Return1_ArgvOnStack_NoBuiltinExit)    ;; near builtin entry
00007FF5BD64774D    8d  cc                   int3l
00007FF5BD64774E    8e  488945c8             REX.W movq [rbp-0x38],rax
00007FF5BD647752    92  488b45c8             REX.W movq rax,[rbp-0x38]
00007FF5BD647756    96  bb03030000           movl rbx,0000000000000303
00007FF5BD64775B    9b  ff7520               push [rbp+0x20]
00007FF5BD64775E    9e  ff7518               push [rbp+0x18]
00007FF5BD647761    a1  41ffb590010000       push [r13+0x190] (root (undefined_value))
00007FF5BD647768    a8  e86763e27f           call 00007FF63D46DAD4  (Call_ReceiverIsNullOrUndefined_Baseline_Compact)    ;; near builtin entry
00007FF5BD64776D    ad  488945d0             REX.W movq [rbp-0x30],rax
00007FF5BD647771    b1  4c8b45f8             REX.W movq r8,[rbp-0x8]
00007FF5BD647775    b5  498b805f020000       REX.W movq rax,[r8+0x25f]
00007FF5BD64777C    bc  493b8598010000       REX.W cmpq rax,[r13+0x198] (root (the_hole_value))
00007FF5BD647783    c3  0f8522000000         jnz 00007FF5BD6477AB  <+0xeb>
00007FF5BD647789    c9  488b75f8             REX.W movq rsi,[rbp-0x8]
00007FF5BD64778D    cd  49ba91aee4be23010000 REX.W movq r10,00000123BEE4AE91    ;; object: 0x0123bee4ae91 <String[19]: #CHAR_BACKWARD_SLASH>
00007FF5BD647797    d7  4152                 push r10
00007FF5BD647799    d9  b801000000           movl rax,0000000000000001
00007FF5BD64779E    de  488b1d9bffffff       REX.W movq rbx,[rip+0xffffff9b]
00007FF5BD6477A5    e5  e8eaeaeb7f           call 00007FF63D506294  (CEntry_Return1_ArgvOnStack_NoBuiltinExit)    ;; near builtin entry
00007FF5BD6477AA    ea  cc                   int3l
00007FF5BD6477AB    eb  488b55d0             REX.W movq rdx,[rbp-0x30]
00007FF5BD6477AF    ef  bb05000000           movl rbx,0000000000000005
00007FF5BD6477B4    f4  e8db7ae97f           call 00007FF63D4DF294  (StrictEqual_Baseline)    ;; near builtin entry
00007FF5BD6477B9    f9  493b85a8010000       REX.W cmpq rax,[r13+0x1a8] (root (true_value))
00007FF5BD6477C0   100  7512                 jnz 00007FF5BD6477D4  <+0x114>
00007FF5BD6477C2   102  4c8b45f0             REX.W movq r8,[rbp-0x10]
00007FF5BD6477C6   106  4d8b4027             REX.W movq r8,[r8+0x27]
00007FF5BD6477CA   10a  4183400f09           addl [r8+0xf],0x9
00007FF5BD6477CF   10f  e963000000           jmp 00007FF5BD647837  <+0x177>
00007FF5BD6477D4   114  4c8b45f8             REX.W movq r8,[rbp-0x8]
00007FF5BD6477D8   118  498b8057020000       REX.W movq rax,[r8+0x257]
00007FF5BD6477DF   11f  493b8598010000       REX.W cmpq rax,[r13+0x198] (root (the_hole_value))
00007FF5BD6477E6   126  0f8522000000         jnz 00007FF5BD64780E  <+0x14e>
00007FF5BD6477EC   12c  488b75f8             REX.W movq rsi,[rbp-0x8]
00007FF5BD6477F0   130  49ba69aee4be23010000 REX.W movq r10,00000123BEE4AE69    ;; object: 0x0123bee4ae69 <String[18]: #CHAR_FORWARD_SLASH>
00007FF5BD6477FA   13a  4152                 push r10
00007FF5BD6477FC   13c  b801000000           movl rax,0000000000000001
00007FF5BD647801   141  488b1d38ffffff       REX.W movq rbx,[rip+0xffffff38]
00007FF5BD647808   148  e887eaeb7f           call 00007FF63D506294  (CEntry_Return1_ArgvOnStack_NoBuiltinExit)    ;; near builtin entry
00007FF5BD64780D   14d  cc                   int3l
00007FF5BD64780E   14e  488b55d0             REX.W movq rdx,[rbp-0x30]
00007FF5BD647812   152  bb06000000           movl rbx,0000000000000006
00007FF5BD647817   157  e8787ae97f           call 00007FF63D4DF294  (StrictEqual_Baseline)    ;; near builtin entry
00007FF5BD64781C   15c  493b85b0010000       REX.W cmpq rax,[r13+0x1b0] (root (false_value))
00007FF5BD647823   163  7512                 jnz 00007FF5BD647837  <+0x177>
00007FF5BD647825   165  4c8b45f0             REX.W movq r8,[rbp-0x10]
00007FF5BD647829   169  4d8b4027             REX.W movq r8,[r8+0x27]
00007FF5BD64782D   16d  4183400f03           addl [r8+0xf],0x3
00007FF5BD647832   172  e915000000           jmp 00007FF5BD64784C  <+0x18c>
00007FF5BD647837   177  488b4520             REX.W movq rax,[rbp+0x20]
00007FF5BD64783B   17b  bb03000000           movl rbx,0000000000000003
00007FF5BD647840   180  48c7c1d7ffffff       REX.W movq rcx,0xffffffd7
00007FF5BD647847   187  e9c80de37f           jmp 00007FF63D478614  (BaselineLeaveFrame)    ;; near builtin entry
00007FF5BD64784C   18c  488b4520             REX.W movq rax,[rbp+0x20]
00007FF5BD647850   190  bb07000000           movl rbx,0000000000000007
00007FF5BD647855   195  e8babce97f           call 00007FF63D4E3514  (Increment_Baseline)    ;; near builtin entry
00007FF5BD64785A   19a  48894520             REX.W movq [rbp+0x20],rax
00007FF5BD64785E   19e  4c8b45d8             REX.W movq r8,[rbp-0x28]
00007FF5BD647862   1a2  458a4814             movb r9l,[r8+0x14]
00007FF5BD647866   1a6  4180f900             cmpb r9l,0x0
00007FF5BD64786A   1aa  7735                 ja 00007FF5BD6478A1  <+0x1e1>
00007FF5BD64786C   1ac  4c8b45f0             REX.W movq r8,[rbp-0x10]
00007FF5BD647870   1b0  4d8b4027             REX.W movq r8,[r8+0x27]
00007FF5BD647874   1b4  4183400fcd           addl [r8+0xf],0xcd
00007FF5BD647879   1b9  0f8d57feffff         jge 00007FF5BD6476D6  <+0x16>
00007FF5BD64787F   1bf  50                   push rax
00007FF5BD647880   1c0  488b75f8             REX.W movq rsi,[rbp-0x8]
00007FF5BD647884   1c4  ff75f0               push [rbp-0x10]
00007FF5BD647887   1c7  b801000000           movl rax,0000000000000001
00007FF5BD64788C   1cc  48bb9021f83cf67f0000 REX.W movq rbx,00007FF63CF82190
00007FF5BD647896   1d6  e8f9e9eb7f           call 00007FF63D506294  (CEntry_Return1_ArgvOnStack_NoBuiltinExit)    ;; near builtin entry
00007FF5BD64789B   1db  58                   pop rax
00007FF5BD64789C   1dc  e935feffff           jmp 00007FF5BD6476D6  <+0x16>
00007FF5BD6478A1   1e1  498b4077             REX.W movq rax,[r8+0x77]
00007FF5BD6478A5   1e5  83f803               cmpl rax,0x3
00007FF5BD6478A8   1e8  0f8412000000         jz 00007FF5BD6478C0  <+0x200>
00007FF5BD6478AE   1ee  4883e0fd             REX.W andq rax,0xfd
00007FF5BD6478B2   1f2  f6403501             testb [rax+0x35],0x1
00007FF5BD6478B6   1f6  7414                 jz 00007FF5BD6478CC  <+0x20c>
00007FF5BD6478B8   1f8  49c7407703000000     REX.W movq [r8+0x77],0x3
00007FF5BD6478C0   200  33c0                 xorl rax,rax
00007FF5BD6478C2   202  4983e107             REX.W andq r9,0x7
00007FF5BD6478C6   206  4180f900             cmpb r9l,0x0
00007FF5BD6478CA   20a  76a0                 jna 00007FF5BD64786C  <+0x1ac>
00007FF5BD6478CC   20c  488b75f8             REX.W movq rsi,[rbp-0x8]
00007FF5BD6478D0   210  e8bf0ce37f           call 00007FF63D478594  (BaselineOnStackReplacement)    ;; near builtin entry
00007FF5BD6478D5   215  eb95                 jmp 00007FF5BD64786C  <+0x1ac>
00007FF5BD6478D7   217  48b800000000ffffffff REX.W movq rax,FFFFFFFF00000000
00007FF5BD6478E1   221  bb03000000           movl rbx,0000000000000003
00007FF5BD6478E6   226  48c7c1caffffff       REX.W movq rcx,0xffffffca
00007FF5BD6478ED   22d  e9220de37f           jmp 00007FF63D478614  (BaselineLeaveFrame)    ;; near builtin entry
00007FF5BD6478F2   232  cc                   int3l
00007FF5BD6478F3   233  cc                   int3l


RelocInfo (size = 35)
00007FF5BD6476C7  full embedded object  (0x03f7ca6f76d1 <BytecodeArray[54]>)
00007FF5BD6476D0  near builtin entry
00007FF5BD6476DC  full embedded object  (0x036663f04791 <String[6]: #length>)
00007FF5BD6476E7  near builtin entry
00007FF5BD6476F5  near builtin entry
00007FF5BD64772F  full embedded object  (0x0123bee467f9 <String[25]: #StringPrototypeCharCodeAt>)
00007FF5BD647749  near builtin entry
00007FF5BD647769  near builtin entry
00007FF5BD64778F  full embedded object  (0x0123bee4ae91 <String[19]: #CHAR_BACKWARD_SLASH>)
00007FF5BD6477A6  near builtin entry
00007FF5BD6477B5  near builtin entry
00007FF5BD6477F2  full embedded object  (0x0123bee4ae69 <String[18]: #CHAR_FORWARD_SLASH>)
00007FF5BD647809  near builtin entry
00007FF5BD647818  near builtin entry
00007FF5BD647848  near builtin entry
00007FF5BD647856  near builtin entry
00007FF5BD647897  near builtin entry
00007FF5BD6478D1  near builtin entry
00007FF5BD6478EE  near builtin entry

000003F7CA6FD949: [Code] in OldSpace
 - map: 0x036663f01019 <Map[88](CODE_TYPE)>
 - kind: BASELINE
 - instruction_stream: 0x7ff5bd647931 <InstructionStream BASELINE>
 - code_entry_point: 00007FF5BD647940
 - kind_specific_flags: 0
00007FF5BD647931: [InstructionStream]
 - map: 0x036663f00951 <Map(INSTRUCTION_STREAM_TYPE)>
 - code: 0x03f7ca6fd949 <Code BASELINE>kind = BASELINE
compiler = baseline
address = 000003F7CA6FD949

Instructions (size = 272)
00007FF5BD647940     0  bb38000000           movl rbx,0000000000000038
00007FF5BD647945     5  49bc415454256e030000 REX.W movq r12,0000036E25545441    ;; object: 0x036e25545441 <BytecodeArray[30]>
00007FF5BD64794F     f  e8400ae37f           call 00007FF63D478394  (BaselineOutOfLinePrologue)    ;; near builtin entry
00007FF5BD647954    14  50                   push rax
00007FF5BD647955    15  50                   push rax
00007FF5BD647956    16  50                   push rax
00007FF5BD647957    17  50                   push rax
00007FF5BD647958    18  488b4518             REX.W movq rax,[rbp+0x18]
00007FF5BD64795C    1c  a801                 test al,0x1
00007FF5BD64795E    1e  7416                 jz 00007FF5BD647976  <+0x36>
00007FF5BD647960    20  4c8b40ff             REX.W movq r8,[rax-0x1]
00007FF5BD647964    24  664181780b8000       cmpw [r8+0xb],0x80
00007FF5BD64796B    2b  7d09                 jge 00007FF5BD647976  <+0x36>
00007FF5BD64796D    2d  498b85a8010000       REX.W movq rax,[r13+0x1a8] (root (true_value))
00007FF5BD647974    34  eb07                 jmp 00007FF5BD64797D  <+0x3d>
00007FF5BD647976    36  498b85b0010000       REX.W movq rax,[r13+0x1b0] (root (false_value))
00007FF5BD64797D    3d  493b85a8010000       REX.W cmpq rax,[r13+0x1a8] (root (true_value))
00007FF5BD647984    44  7512                 jnz 00007FF5BD647998  <+0x58>
00007FF5BD647986    46  4c8b45f0             REX.W movq r8,[rbp-0x10]
00007FF5BD64798A    4a  4d8b4027             REX.W movq r8,[r8+0x27]
00007FF5BD64798E    4e  4183400f16           addl [r8+0xf],0x16
00007FF5BD647993    53  e9a0000000           jmp 00007FF5BD647A38  <+0xf8>
00007FF5BD647998    58  4c8b45f8             REX.W movq r8,[rbp-0x8]
00007FF5BD64799C    5c  498b8097000000       REX.W movq rax,[r8+0x97]
00007FF5BD6479A3    63  493b8598010000       REX.W cmpq rax,[r13+0x198] (root (the_hole_value))
00007FF5BD6479AA    6a  0f8525000000         jnz 00007FF5BD6479D5  <+0x95>
00007FF5BD6479B0    70  488b75f8             REX.W movq rsi,[rbp-0x8]
00007FF5BD6479B4    74  49ba214ae4be23010000 REX.W movq r10,00000123BEE44A21    ;; object: 0x0123bee44a21 <String[20]: #ERR_INVALID_ARG_TYPE>
00007FF5BD6479BE    7e  4152                 push r10
00007FF5BD6479C0    80  b801000000           movl rax,0000000000000001
00007FF5BD6479C5    85  48bb5038f83cf67f0000 REX.W movq rbx,00007FF63CF83850
00007FF5BD6479CF    8f  e8c0e8eb7f           call 00007FF63D506294  (CEntry_Return1_ArgvOnStack_NoBuiltinExit)    ;; near builtin entry
00007FF5BD6479D4    94  cc                   int3l
00007FF5BD6479D5    95  488945d0             REX.W movq [rbp-0x30],rax
00007FF5BD6479D9    99  48b8d173f06366030000 REX.W movq rax,0000036663F073D1    ;; object: 0x036663f073d1 <String[6]: #string>
00007FF5BD6479E3    a3  488945c0             REX.W movq [rbp-0x40],rax
00007FF5BD6479E7    a7  488b45d0             REX.W movq rax,[rbp-0x30]
00007FF5BD6479EB    ab  4c8b4520             REX.W movq r8,[rbp+0x20]
00007FF5BD6479EF    af  4c8945c8             REX.W movq [rbp-0x38],r8
00007FF5BD6479F3    b3  4c8b4518             REX.W movq r8,[rbp+0x18]
00007FF5BD6479F7    b7  4c8945b8             REX.W movq [rbp-0x48],r8
00007FF5BD6479FB    bb  488b7dd0             REX.W movq rdi,[rbp-0x30]
00007FF5BD6479FF    bf  488bd0               REX.W movq rdx,rax
00007FF5BD647A02    c2  b804000000           movl rax,0000000000000004
00007FF5BD647A07    c7  33db                 xorl rbx,rbx
00007FF5BD647A09    c9  ff75b8               push [rbp-0x48]
00007FF5BD647A0C    cc  ff75c0               push [rbp-0x40]
00007FF5BD647A0F    cf  ff75c8               push [rbp-0x38]
00007FF5BD647A12    d2  41ffb590010000       push [r13+0x190] (root (undefined_value))
00007FF5BD647A19    d9  e8f6cbe27f           call 00007FF63D474614  (Construct_Baseline)    ;; near builtin entry
00007FF5BD647A1E    de  488b75f8             REX.W movq rsi,[rbp-0x8]
00007FF5BD647A22    e2  50                   push rax
00007FF5BD647A23    e3  b801000000           movl rax,0000000000000001
00007FF5BD647A28    e8  48bbd037f83cf67f0000 REX.W movq rbx,00007FF63CF837D0
00007FF5BD647A32    f2  e85de8eb7f           call 00007FF63D506294  (CEntry_Return1_ArgvOnStack_NoBuiltinExit)    ;; near builtin entry
00007FF5BD647A37    f7  cc                   int3l
00007FF5BD647A38    f8  498b8590010000       REX.W movq rax,[r13+0x190] (root (undefined_value))
00007FF5BD647A3F    ff  bb03000000           movl rbx,0000000000000003
00007FF5BD647A44   104  48c7c1e2ffffff       REX.W movq rcx,0xffffffe2
00007FF5BD647A4B   10b  e9c40be37f           jmp 00007FF63D478614  (BaselineLeaveFrame)    ;; near builtin entry


RelocInfo (size = 15)
00007FF5BD647947  full embedded object  (0x036e25545441 <BytecodeArray[30]>)
00007FF5BD647950  near builtin entry
00007FF5BD6479B6  full embedded object  (0x0123bee44a21 <String[20]: #ERR_INVALID_ARG_TYPE>)
00007FF5BD6479D0  near builtin entry
00007FF5BD6479DB  full embedded object  (0x036663f073d1 <String[6]: #string>)
00007FF5BD647A1A  near builtin entry
00007FF5BD647A33  near builtin entry
00007FF5BD647A4C  near builtin entry

Factorial output: 5040
